ARM GAS  C:\Users\Snufkin\AppData\Local\Temp\ccdSVrqg.s 			page 1


   1              		.cpu cortex-m0
   2              		.fpu softvfp
   3              		.eabi_attribute 20, 1
   4              		.eabi_attribute 21, 1
   5              		.eabi_attribute 23, 3
   6              		.eabi_attribute 24, 1
   7              		.eabi_attribute 25, 1
   8              		.eabi_attribute 26, 1
   9              		.eabi_attribute 30, 6
  10              		.eabi_attribute 34, 0
  11              		.eabi_attribute 18, 4
  12              		.code	16
  13              		.file	"keypad.c"
  14              		.text
  15              	.Ltext0:
  16              		.cfi_sections	.debug_frame
  17              		.global	btn_old
  18              		.bss
  19              		.type	btn_old, %object
  20              		.size	btn_old, 1
  21              	btn_old:
  22 0000 00       		.space	1
  23              		.section	.text.getButton,"ax",%progbits
  24              		.align	2
  25              		.global	getButton
  26              		.code	16
  27              		.thumb_func
  28              		.type	getButton, %function
  29              	getButton:
  30              	.LFB33:
  31              		.file 1 ".\\keypad.c"
   1:.\keypad.c    **** /* ========================================
   2:.\keypad.c    ****  *
   3:.\keypad.c    ****  * Copyright YOUR COMPANY, THE YEAR
   4:.\keypad.c    ****  * All Rights Reserved
   5:.\keypad.c    ****  * UNPUBLISHED, LICENSED SOFTWARE.
   6:.\keypad.c    ****  *
   7:.\keypad.c    ****  * CONFIDENTIAL AND PROPRIETARY INFORMATION
   8:.\keypad.c    ****  * WHICH IS THE PROPERTY OF your company.
   9:.\keypad.c    ****  *
  10:.\keypad.c    ****  * ========================================
  11:.\keypad.c    **** */
  12:.\keypad.c    **** 
  13:.\keypad.c    **** /* [] END OF FILE */
  14:.\keypad.c    **** 
  15:.\keypad.c    **** #include <project.h>
  16:.\keypad.c    **** #include "keypad.h"
  17:.\keypad.c    **** 
  18:.\keypad.c    **** BTN_states btn_old = UNPRESSED;
  19:.\keypad.c    **** 
  20:.\keypad.c    **** BTN_states getButton(void){
  32              		.loc 1 20 0
  33              		.cfi_startproc
  34 0000 80B5     		push	{r7, lr}
  35              		.cfi_def_cfa_offset 8
  36              		.cfi_offset 7, -8
  37              		.cfi_offset 14, -4
ARM GAS  C:\Users\Snufkin\AppData\Local\Temp\ccdSVrqg.s 			page 2


  38 0002 82B0     		sub	sp, sp, #8
  39              		.cfi_def_cfa_offset 16
  40 0004 00AF     		add	r7, sp, #0
  41              		.cfi_def_cfa_register 7
  21:.\keypad.c    ****     BTN_states btn;
  22:.\keypad.c    ****     uint16 temp = ADC_GetResult16(1); //A0
  42              		.loc 1 22 0
  43 0006 0120     		mov	r0, #1
  44 0008 FFF7FEFF 		bl	ADC_GetResult16
  45 000c 031C     		mov	r3, r0
  46 000e 1A1C     		mov	r2, r3
  47 0010 3B1D     		add	r3, r7, #4
  48 0012 1A80     		strh	r2, [r3]
  23:.\keypad.c    ****     
  24:.\keypad.c    ****     if (temp == 0xFFFF || temp <= 5)
  49              		.loc 1 24 0
  50 0014 3B1D     		add	r3, r7, #4
  51 0016 1A88     		ldrh	r2, [r3]
  52 0018 1F4B     		ldr	r3, .L11
  53 001a 9A42     		cmp	r2, r3
  54 001c 03D0     		beq	.L2
  55              		.loc 1 24 0 is_stmt 0 discriminator 1
  56 001e 3B1D     		add	r3, r7, #4
  57 0020 1B88     		ldrh	r3, [r3]
  58 0022 052B     		cmp	r3, #5
  59 0024 03D8     		bhi	.L3
  60              	.L2:
  25:.\keypad.c    ****         btn = RIGHT;
  61              		.loc 1 25 0 is_stmt 1
  62 0026 FB1D     		add	r3, r7, #7
  63 0028 0522     		mov	r2, #5
  64 002a 1A70     		strb	r2, [r3]
  65 002c 22E0     		b	.L4
  66              	.L3:
  26:.\keypad.c    ****     else if(temp <= 20)
  67              		.loc 1 26 0
  68 002e 3B1D     		add	r3, r7, #4
  69 0030 1B88     		ldrh	r3, [r3]
  70 0032 142B     		cmp	r3, #20
  71 0034 03D8     		bhi	.L5
  27:.\keypad.c    ****         btn = UP;
  72              		.loc 1 27 0
  73 0036 FB1D     		add	r3, r7, #7
  74 0038 0422     		mov	r2, #4
  75 003a 1A70     		strb	r2, [r3]
  76 003c 1AE0     		b	.L4
  77              	.L5:
  28:.\keypad.c    ****     else if(temp <= 40)
  78              		.loc 1 28 0
  79 003e 3B1D     		add	r3, r7, #4
  80 0040 1B88     		ldrh	r3, [r3]
  81 0042 282B     		cmp	r3, #40
  82 0044 03D8     		bhi	.L6
  29:.\keypad.c    ****         btn = DOWN;
  83              		.loc 1 29 0
  84 0046 FB1D     		add	r3, r7, #7
  85 0048 0322     		mov	r2, #3
ARM GAS  C:\Users\Snufkin\AppData\Local\Temp\ccdSVrqg.s 			page 3


  86 004a 1A70     		strb	r2, [r3]
  87 004c 12E0     		b	.L4
  88              	.L6:
  30:.\keypad.c    ****     else if(temp <= 60)
  89              		.loc 1 30 0
  90 004e 3B1D     		add	r3, r7, #4
  91 0050 1B88     		ldrh	r3, [r3]
  92 0052 3C2B     		cmp	r3, #60
  93 0054 03D8     		bhi	.L7
  31:.\keypad.c    ****         btn = LEFT;
  94              		.loc 1 31 0
  95 0056 FB1D     		add	r3, r7, #7
  96 0058 0222     		mov	r2, #2
  97 005a 1A70     		strb	r2, [r3]
  98 005c 0AE0     		b	.L4
  99              	.L7:
  32:.\keypad.c    ****     else if(temp <= 100)
 100              		.loc 1 32 0
 101 005e 3B1D     		add	r3, r7, #4
 102 0060 1B88     		ldrh	r3, [r3]
 103 0062 642B     		cmp	r3, #100
 104 0064 03D8     		bhi	.L8
  33:.\keypad.c    ****         btn = SELECT;
 105              		.loc 1 33 0
 106 0066 FB1D     		add	r3, r7, #7
 107 0068 0122     		mov	r2, #1
 108 006a 1A70     		strb	r2, [r3]
 109 006c 02E0     		b	.L4
 110              	.L8:
  34:.\keypad.c    ****     else
  35:.\keypad.c    ****         btn = UNPRESSED;
 111              		.loc 1 35 0
 112 006e FB1D     		add	r3, r7, #7
 113 0070 0022     		mov	r2, #0
 114 0072 1A70     		strb	r2, [r3]
 115              	.L4:
  36:.\keypad.c    ****     
  37:.\keypad.c    ****     if (btn_old != btn)
 116              		.loc 1 37 0
 117 0074 094B     		ldr	r3, .L11+4
 118 0076 1B78     		ldrb	r3, [r3]
 119 0078 FA1D     		add	r2, r7, #7
 120 007a 1278     		ldrb	r2, [r2]
 121 007c 9A42     		cmp	r2, r3
 122 007e 06D0     		beq	.L9
  38:.\keypad.c    ****         return btn_old = btn;
 123              		.loc 1 38 0
 124 0080 064B     		ldr	r3, .L11+4
 125 0082 FA1D     		add	r2, r7, #7
 126 0084 1278     		ldrb	r2, [r2]
 127 0086 1A70     		strb	r2, [r3]
 128 0088 044B     		ldr	r3, .L11+4
 129 008a 1B78     		ldrb	r3, [r3]
 130 008c 00E0     		b	.L10
 131              	.L9:
  39:.\keypad.c    ****     else
  40:.\keypad.c    ****         return UNPRESSED;
ARM GAS  C:\Users\Snufkin\AppData\Local\Temp\ccdSVrqg.s 			page 4


 132              		.loc 1 40 0
 133 008e 0023     		mov	r3, #0
 134              	.L10:
  41:.\keypad.c    **** }...
 135              		.loc 1 41 0
 136 0090 181C     		mov	r0, r3
 137 0092 BD46     		mov	sp, r7
 138 0094 02B0     		add	sp, sp, #8
 139              		@ sp needed
 140 0096 80BD     		pop	{r7, pc}
 141              	.L12:
 142              		.align	2
 143              	.L11:
 144 0098 FFFF0000 		.word	65535
 145 009c 00000000 		.word	btn_old
 146              		.cfi_endproc
 147              	.LFE33:
 148              		.size	getButton, .-getButton
 149              		.text
 150              	.Letext0:
 151              		.file 2 ".\\Generated_Source\\PSoC4/cytypes.h"
 152              		.file 3 ".\\keypad.h"