ARM GAS  C:\Users\Snufkin\AppData\Local\Temp\ccVBD2Q5.s 			page 1


   1              		.cpu cortex-m0
   2              		.fpu softvfp
   3              		.eabi_attribute 20, 1
   4              		.eabi_attribute 21, 1
   5              		.eabi_attribute 23, 3
   6              		.eabi_attribute 24, 1
   7              		.eabi_attribute 25, 1
   8              		.eabi_attribute 26, 1
   9              		.eabi_attribute 30, 6
  10              		.eabi_attribute 34, 0
  11              		.eabi_attribute 18, 4
  12              		.code	16
  13              		.file	"LCD_CustChars.c"
  14              		.text
  15              	.Ltext0:
  16              		.cfi_sections	.debug_frame
  17              		.global	LCD_customFonts
  18              		.section	.rodata
  19              		.align	2
  20              		.type	LCD_customFonts, %object
  21              		.size	LCD_customFonts, 64
  22              	LCD_customFonts:
  23 0000 03       		.byte	3
  24 0001 04       		.byte	4
  25 0002 08       		.byte	8
  26 0003 08       		.byte	8
  27 0004 08       		.byte	8
  28 0005 04       		.byte	4
  29 0006 03       		.byte	3
  30 0007 00       		.byte	0
  31 0008 10       		.byte	16
  32 0009 08       		.byte	8
  33 000a 04       		.byte	4
  34 000b 04       		.byte	4
  35 000c 04       		.byte	4
  36 000d 08       		.byte	8
  37 000e 10       		.byte	16
  38 000f 00       		.byte	0
  39 0010 00       		.byte	0
  40 0011 00       		.byte	0
  41 0012 10       		.byte	16
  42 0013 10       		.byte	16
  43 0014 10       		.byte	16
  44 0015 10       		.byte	16
  45 0016 00       		.byte	0
  46 0017 00       		.byte	0
  47 0018 00       		.byte	0
  48 0019 0E       		.byte	14
  49 001a 0A       		.byte	10
  50 001b 0C       		.byte	12
  51 001c 0A       		.byte	10
  52 001d 0A       		.byte	10
  53 001e 00       		.byte	0
  54 001f 00       		.byte	0
  55 0020 03       		.byte	3
  56 0021 07       		.byte	7
  57 0022 0C       		.byte	12
ARM GAS  C:\Users\Snufkin\AppData\Local\Temp\ccVBD2Q5.s 			page 2


  58 0023 0C       		.byte	12
  59 0024 0C       		.byte	12
  60 0025 07       		.byte	7
  61 0026 03       		.byte	3
  62 0027 00       		.byte	0
  63 0028 10       		.byte	16
  64 0029 18       		.byte	24
  65 002a 0C       		.byte	12
  66 002b 0C       		.byte	12
  67 002c 0C       		.byte	12
  68 002d 18       		.byte	24
  69 002e 10       		.byte	16
  70 002f 00       		.byte	0
  71 0030 00       		.byte	0
  72 0031 0E       		.byte	14
  73 0032 08       		.byte	8
  74 0033 0E       		.byte	14
  75 0034 02       		.byte	2
  76 0035 0E       		.byte	14
  77 0036 00       		.byte	0
  78 0037 00       		.byte	0
  79 0038 00       		.byte	0
  80 0039 04       		.byte	4
  81 003a 04       		.byte	4
  82 003b 04       		.byte	4
  83 003c 00       		.byte	0
  84 003d 04       		.byte	4
  85 003e 00       		.byte	0
  86 003f 00       		.byte	0
  87              		.section	.text.LCD_LoadCustomFonts,"ax",%progbits
  88              		.align	2
  89              		.global	LCD_LoadCustomFonts
  90              		.code	16
  91              		.thumb_func
  92              		.type	LCD_LoadCustomFonts, %function
  93              	LCD_LoadCustomFonts:
  94              	.LFB0:
  95              		.file 1 ".\\Generated_Source\\PSoC4\\LCD_CustChars.c"
   1:.\Generated_Source\PSoC4/LCD_CustChars.c **** /*******************************************************************************
   2:.\Generated_Source\PSoC4/LCD_CustChars.c **** * File Name: LCD_CustChars.c
   3:.\Generated_Source\PSoC4/LCD_CustChars.c **** * Version 1.0
   4:.\Generated_Source\PSoC4/LCD_CustChars.c **** *
   5:.\Generated_Source\PSoC4/LCD_CustChars.c **** * Description:
   6:.\Generated_Source\PSoC4/LCD_CustChars.c **** *  This file provides the source code for the Character LCD custom character
   7:.\Generated_Source\PSoC4/LCD_CustChars.c **** *  API.
   8:.\Generated_Source\PSoC4/LCD_CustChars.c **** *
   9:.\Generated_Source\PSoC4/LCD_CustChars.c **** * Note:
  10:.\Generated_Source\PSoC4/LCD_CustChars.c **** *
  11:.\Generated_Source\PSoC4/LCD_CustChars.c **** ********************************************************************************
  12:.\Generated_Source\PSoC4/LCD_CustChars.c **** * Copyright 2008-2012, Cypress Semiconductor Corporation.  All rights reserved.
  13:.\Generated_Source\PSoC4/LCD_CustChars.c **** * You may use this file only in accordance with the license, terms, conditions,
  14:.\Generated_Source\PSoC4/LCD_CustChars.c **** * disclaimers, and limitations in the end user license agreement accompanying
  15:.\Generated_Source\PSoC4/LCD_CustChars.c **** * the software package with which this file was provided.
  16:.\Generated_Source\PSoC4/LCD_CustChars.c **** *******************************************************************************/
  17:.\Generated_Source\PSoC4/LCD_CustChars.c **** 
  18:.\Generated_Source\PSoC4/LCD_CustChars.c **** #include "LCD.h"
  19:.\Generated_Source\PSoC4/LCD_CustChars.c **** 
ARM GAS  C:\Users\Snufkin\AppData\Local\Temp\ccVBD2Q5.s 			page 3


  20:.\Generated_Source\PSoC4/LCD_CustChars.c **** 
  21:.\Generated_Source\PSoC4/LCD_CustChars.c **** uint8 const CYCODE LCD_customFonts[] = \
  22:.\Generated_Source\PSoC4/LCD_CustChars.c **** {
  23:.\Generated_Source\PSoC4/LCD_CustChars.c ****     /* Character LCD_CUSTOM_0   */
  24:.\Generated_Source\PSoC4/LCD_CustChars.c ****         0x03u,    0x04u,    0x08u,    0x08u,    0x08u,    0x04u,    0x03u,    0x00u, \
  25:.\Generated_Source\PSoC4/LCD_CustChars.c ****     /* Character LCD_CUSTOM_1   */
  26:.\Generated_Source\PSoC4/LCD_CustChars.c ****         0x10u,    0x08u,    0x04u,    0x04u,    0x04u,    0x08u,    0x10u,    0x00u, \
  27:.\Generated_Source\PSoC4/LCD_CustChars.c ****     /* Character LCD_CUSTOM_2   */
  28:.\Generated_Source\PSoC4/LCD_CustChars.c ****         0x00u,    0x00u,    0x10u,    0x10u,    0x10u,    0x10u,    0x00u,    0x00u, \
  29:.\Generated_Source\PSoC4/LCD_CustChars.c ****     /* Character LCD_CUSTOM_3   */
  30:.\Generated_Source\PSoC4/LCD_CustChars.c ****         0x00u,    0x0Eu,    0x0Au,    0x0Cu,    0x0Au,    0x0Au,    0x00u,    0x00u, \
  31:.\Generated_Source\PSoC4/LCD_CustChars.c ****     /* Character LCD_CUSTOM_4   */
  32:.\Generated_Source\PSoC4/LCD_CustChars.c ****         0x03u,    0x07u,    0x0Cu,    0x0Cu,    0x0Cu,    0x07u,    0x03u,    0x00u, \
  33:.\Generated_Source\PSoC4/LCD_CustChars.c ****     /* Character LCD_CUSTOM_5   */
  34:.\Generated_Source\PSoC4/LCD_CustChars.c ****         0x10u,    0x18u,    0x0Cu,    0x0Cu,    0x0Cu,    0x18u,    0x10u,    0x00u, \
  35:.\Generated_Source\PSoC4/LCD_CustChars.c ****     /* Character LCD_CUSTOM_6   */
  36:.\Generated_Source\PSoC4/LCD_CustChars.c ****         0x00u,    0x0Eu,    0x08u,    0x0Eu,    0x02u,    0x0Eu,    0x00u,    0x00u, \
  37:.\Generated_Source\PSoC4/LCD_CustChars.c ****     /* Character LCD_CUSTOM_7   */
  38:.\Generated_Source\PSoC4/LCD_CustChars.c ****         0x00u,    0x04u,    0x04u,    0x04u,    0x00u,    0x04u,    0x00u,    0x00u \
  39:.\Generated_Source\PSoC4/LCD_CustChars.c ****  };
  40:.\Generated_Source\PSoC4/LCD_CustChars.c **** 
  41:.\Generated_Source\PSoC4/LCD_CustChars.c **** 
  42:.\Generated_Source\PSoC4/LCD_CustChars.c **** /*******************************************************************************
  43:.\Generated_Source\PSoC4/LCD_CustChars.c **** * Function Name: LCD_LoadCustomFonts
  44:.\Generated_Source\PSoC4/LCD_CustChars.c **** ********************************************************************************
  45:.\Generated_Source\PSoC4/LCD_CustChars.c **** *
  46:.\Generated_Source\PSoC4/LCD_CustChars.c **** * Summary:
  47:.\Generated_Source\PSoC4/LCD_CustChars.c **** *  Loads 8 custom font characters into the LCD Module for use.  Cannot use
  48:.\Generated_Source\PSoC4/LCD_CustChars.c **** *  characters from two different font sets at once, but font sets can be
  49:.\Generated_Source\PSoC4/LCD_CustChars.c **** *  switched out during runtime.
  50:.\Generated_Source\PSoC4/LCD_CustChars.c **** *
  51:.\Generated_Source\PSoC4/LCD_CustChars.c **** * Parameters:
  52:.\Generated_Source\PSoC4/LCD_CustChars.c **** *  customData:  pointer to a constant array of 64 bytes representing 8 custom
  53:.\Generated_Source\PSoC4/LCD_CustChars.c **** *               font characters.
  54:.\Generated_Source\PSoC4/LCD_CustChars.c **** * Return:
  55:.\Generated_Source\PSoC4/LCD_CustChars.c **** *  None.
  56:.\Generated_Source\PSoC4/LCD_CustChars.c **** *
  57:.\Generated_Source\PSoC4/LCD_CustChars.c **** * Theory:
  58:.\Generated_Source\PSoC4/LCD_CustChars.c **** *  Prior to using this function user need to import the pointer to custom
  59:.\Generated_Source\PSoC4/LCD_CustChars.c **** *  font array to your project by writting the following in the source code file
  60:.\Generated_Source\PSoC4/LCD_CustChars.c **** *  where custom font will be used:
  61:.\Generated_Source\PSoC4/LCD_CustChars.c **** *       extern uint8 const CYCODE LCD_Char_customFonts[];
  62:.\Generated_Source\PSoC4/LCD_CustChars.c **** *  This function is not automatically called by the Start() routine and must be
  63:.\Generated_Source\PSoC4/LCD_CustChars.c **** *  called manually by the user.
  64:.\Generated_Source\PSoC4/LCD_CustChars.c **** *
  65:.\Generated_Source\PSoC4/LCD_CustChars.c **** *******************************************************************************/
  66:.\Generated_Source\PSoC4/LCD_CustChars.c **** void LCD_LoadCustomFonts(uint8 const customData[]) 
  67:.\Generated_Source\PSoC4/LCD_CustChars.c **** {
  96              		.loc 1 67 0
  97              		.cfi_startproc
  98 0000 80B5     		push	{r7, lr}
  99              		.cfi_def_cfa_offset 8
 100              		.cfi_offset 7, -8
 101              		.cfi_offset 14, -4
 102 0002 84B0     		sub	sp, sp, #16
 103              		.cfi_def_cfa_offset 24
 104 0004 00AF     		add	r7, sp, #0
ARM GAS  C:\Users\Snufkin\AppData\Local\Temp\ccVBD2Q5.s 			page 4


 105              		.cfi_def_cfa_register 7
 106 0006 7860     		str	r0, [r7, #4]
  68:.\Generated_Source\PSoC4/LCD_CustChars.c ****     uint8 indexU8;
  69:.\Generated_Source\PSoC4/LCD_CustChars.c **** 
  70:.\Generated_Source\PSoC4/LCD_CustChars.c ****     LCD_IsReady();
 107              		.loc 1 70 0
 108 0008 FFF7FEFF 		bl	LCD_IsReady
  71:.\Generated_Source\PSoC4/LCD_CustChars.c **** 
  72:.\Generated_Source\PSoC4/LCD_CustChars.c ****     /* Set starting address in the LCD Module.
  73:.\Generated_Source\PSoC4/LCD_CustChars.c ****     * Optionally: Read the current address to restore at a later time.
  74:.\Generated_Source\PSoC4/LCD_CustChars.c ****     */
  75:.\Generated_Source\PSoC4/LCD_CustChars.c ****     LCD_WriteControl(LCD_CGRAM_0);
 109              		.loc 1 75 0
 110 000c 4020     		mov	r0, #64
 111 000e FFF7FEFF 		bl	LCD_WriteControl
  76:.\Generated_Source\PSoC4/LCD_CustChars.c **** 
  77:.\Generated_Source\PSoC4/LCD_CustChars.c ****     /* Load in the 64 bytes of CustomChar Data */
  78:.\Generated_Source\PSoC4/LCD_CustChars.c ****     for(indexU8 = 0u; indexU8 < LCD_CUSTOM_CHAR_SET_LEN; indexU8++)
 112              		.loc 1 78 0
 113 0012 3B1C     		mov	r3, r7
 114 0014 0F33     		add	r3, r3, #15
 115 0016 0022     		mov	r2, #0
 116 0018 1A70     		strb	r2, [r3]
 117 001a 0FE0     		b	.L2
 118              	.L3:
  79:.\Generated_Source\PSoC4/LCD_CustChars.c ****     {
  80:.\Generated_Source\PSoC4/LCD_CustChars.c ****         LCD_WriteData(customData[indexU8]);
 119              		.loc 1 80 0 discriminator 2
 120 001c 3B1C     		mov	r3, r7
 121 001e 0F33     		add	r3, r3, #15
 122 0020 1B78     		ldrb	r3, [r3]
 123 0022 7A68     		ldr	r2, [r7, #4]
 124 0024 D318     		add	r3, r2, r3
 125 0026 1B78     		ldrb	r3, [r3]
 126 0028 181C     		mov	r0, r3
 127 002a FFF7FEFF 		bl	LCD_WriteData
  78:.\Generated_Source\PSoC4/LCD_CustChars.c ****     for(indexU8 = 0u; indexU8 < LCD_CUSTOM_CHAR_SET_LEN; indexU8++)
 128              		.loc 1 78 0 discriminator 2
 129 002e 3B1C     		mov	r3, r7
 130 0030 0F33     		add	r3, r3, #15
 131 0032 1A78     		ldrb	r2, [r3]
 132 0034 3B1C     		mov	r3, r7
 133 0036 0F33     		add	r3, r3, #15
 134 0038 0132     		add	r2, r2, #1
 135 003a 1A70     		strb	r2, [r3]
 136              	.L2:
  78:.\Generated_Source\PSoC4/LCD_CustChars.c ****     for(indexU8 = 0u; indexU8 < LCD_CUSTOM_CHAR_SET_LEN; indexU8++)
 137              		.loc 1 78 0 is_stmt 0 discriminator 1
 138 003c 3B1C     		mov	r3, r7
 139 003e 0F33     		add	r3, r3, #15
 140 0040 1B78     		ldrb	r3, [r3]
 141 0042 3F2B     		cmp	r3, #63
 142 0044 EAD9     		bls	.L3
  81:.\Generated_Source\PSoC4/LCD_CustChars.c ****     }
  82:.\Generated_Source\PSoC4/LCD_CustChars.c **** 
  83:.\Generated_Source\PSoC4/LCD_CustChars.c ****     LCD_IsReady();
 143              		.loc 1 83 0 is_stmt 1
ARM GAS  C:\Users\Snufkin\AppData\Local\Temp\ccVBD2Q5.s 			page 5


 144 0046 FFF7FEFF 		bl	LCD_IsReady
  84:.\Generated_Source\PSoC4/LCD_CustChars.c ****     LCD_WriteControl(LCD_DDRAM_0);
 145              		.loc 1 84 0
 146 004a 8020     		mov	r0, #128
 147 004c FFF7FEFF 		bl	LCD_WriteControl
  85:.\Generated_Source\PSoC4/LCD_CustChars.c **** }
 148              		.loc 1 85 0
 149 0050 BD46     		mov	sp, r7
 150 0052 04B0     		add	sp, sp, #16
 151              		@ sp needed
 152 0054 80BD     		pop	{r7, pc}
 153              		.cfi_endproc
 154              	.LFE0:
 155              		.size	LCD_LoadCustomFonts, .-LCD_LoadCustomFonts
 156 0056 C046     		.text
 157              	.Letext0:
 158              		.file 2 ".\\Generated_Source\\PSoC4\\cytypes.h"