ARM GAS  C:\Users\Snufkin\AppData\Local\Temp\ccr4k6iA.s 			page 1


   1              		.cpu cortex-m0
   2              		.fpu softvfp
   3              		.eabi_attribute 20, 1
   4              		.eabi_attribute 21, 1
   5              		.eabi_attribute 23, 3
   6              		.eabi_attribute 24, 1
   7              		.eabi_attribute 25, 1
   8              		.eabi_attribute 26, 1
   9              		.eabi_attribute 30, 6
  10              		.eabi_attribute 34, 0
  11              		.eabi_attribute 18, 4
  12              		.code	16
  13              		.file	"LCD_BarGraph.c"
  14              		.text
  15              	.Ltext0:
  16              		.cfi_sections	.debug_frame
  17              		.global	LCD_customFonts
  18              		.section	.rodata
  19              		.align	2
  20              		.type	LCD_customFonts, %object
  21              		.size	LCD_customFonts, 64
  22              	LCD_customFonts:
  23 0000 00       		.byte	0
  24 0001 00       		.byte	0
  25 0002 00       		.byte	0
  26 0003 00       		.byte	0
  27 0004 00       		.byte	0
  28 0005 00       		.byte	0
  29 0006 00       		.byte	0
  30 0007 00       		.byte	0
  31 0008 10       		.byte	16
  32 0009 10       		.byte	16
  33 000a 10       		.byte	16
  34 000b 10       		.byte	16
  35 000c 10       		.byte	16
  36 000d 10       		.byte	16
  37 000e 10       		.byte	16
  38 000f 10       		.byte	16
  39 0010 18       		.byte	24
  40 0011 18       		.byte	24
  41 0012 18       		.byte	24
  42 0013 18       		.byte	24
  43 0014 18       		.byte	24
  44 0015 18       		.byte	24
  45 0016 18       		.byte	24
  46 0017 18       		.byte	24
  47 0018 1C       		.byte	28
  48 0019 1C       		.byte	28
  49 001a 1C       		.byte	28
  50 001b 1C       		.byte	28
  51 001c 1C       		.byte	28
  52 001d 1C       		.byte	28
  53 001e 1C       		.byte	28
  54 001f 1C       		.byte	28
  55 0020 1E       		.byte	30
  56 0021 1E       		.byte	30
  57 0022 1E       		.byte	30
ARM GAS  C:\Users\Snufkin\AppData\Local\Temp\ccr4k6iA.s 			page 2


  58 0023 1E       		.byte	30
  59 0024 1E       		.byte	30
  60 0025 1E       		.byte	30
  61 0026 1E       		.byte	30
  62 0027 1E       		.byte	30
  63 0028 1F       		.byte	31
  64 0029 1F       		.byte	31
  65 002a 1F       		.byte	31
  66 002b 1F       		.byte	31
  67 002c 1F       		.byte	31
  68 002d 1F       		.byte	31
  69 002e 1F       		.byte	31
  70 002f 1F       		.byte	31
  71 0030 00       		.byte	0
  72 0031 00       		.byte	0
  73 0032 00       		.byte	0
  74 0033 00       		.byte	0
  75 0034 00       		.byte	0
  76 0035 00       		.byte	0
  77 0036 00       		.byte	0
  78 0037 00       		.byte	0
  79 0038 00       		.byte	0
  80 0039 00       		.byte	0
  81 003a 00       		.byte	0
  82 003b 00       		.byte	0
  83 003c 00       		.byte	0
  84 003d 00       		.byte	0
  85 003e 00       		.byte	0
  86 003f 00       		.byte	0
  87              		.section	.text.LCD_LoadCustomFonts,"ax",%progbits
  88              		.align	2
  89              		.global	LCD_LoadCustomFonts
  90              		.code	16
  91              		.thumb_func
  92              		.type	LCD_LoadCustomFonts, %function
  93              	LCD_LoadCustomFonts:
  94              	.LFB0:
  95              		.file 1 ".\\Generated_Source\\PSoC4\\LCD_BarGraph.c"
   1:.\Generated_Source\PSoC4/LCD_BarGraph.c **** /*******************************************************************************
   2:.\Generated_Source\PSoC4/LCD_BarGraph.c **** * File Name: LCD_BarGraph.c
   3:.\Generated_Source\PSoC4/LCD_BarGraph.c **** * Version 1.0
   4:.\Generated_Source\PSoC4/LCD_BarGraph.c **** *
   5:.\Generated_Source\PSoC4/LCD_BarGraph.c **** * Description:
   6:.\Generated_Source\PSoC4/LCD_BarGraph.c **** *  This file provides the custom character data and API for creating and using
   7:.\Generated_Source\PSoC4/LCD_BarGraph.c **** *  bar graphs with the Character LCD component.
   8:.\Generated_Source\PSoC4/LCD_BarGraph.c **** *
   9:.\Generated_Source\PSoC4/LCD_BarGraph.c **** * Note:
  10:.\Generated_Source\PSoC4/LCD_BarGraph.c **** *
  11:.\Generated_Source\PSoC4/LCD_BarGraph.c **** ********************************************************************************
  12:.\Generated_Source\PSoC4/LCD_BarGraph.c **** * Copyright 2008-2012, Cypress Semiconductor Corporation.  All rights reserved.
  13:.\Generated_Source\PSoC4/LCD_BarGraph.c **** * You may use this file only in accordance with the license, terms, conditions,
  14:.\Generated_Source\PSoC4/LCD_BarGraph.c **** * disclaimers, and limitations in the end user license agreement accompanying
  15:.\Generated_Source\PSoC4/LCD_BarGraph.c **** * the software package with which this file was provided.
  16:.\Generated_Source\PSoC4/LCD_BarGraph.c **** *******************************************************************************/
  17:.\Generated_Source\PSoC4/LCD_BarGraph.c **** 
  18:.\Generated_Source\PSoC4/LCD_BarGraph.c **** #include "LCD.h"
  19:.\Generated_Source\PSoC4/LCD_BarGraph.c **** 
ARM GAS  C:\Users\Snufkin\AppData\Local\Temp\ccr4k6iA.s 			page 3


  20:.\Generated_Source\PSoC4/LCD_BarGraph.c **** 
  21:.\Generated_Source\PSoC4/LCD_BarGraph.c **** uint8 const CYCODE LCD_customFonts[] = \
  22:.\Generated_Source\PSoC4/LCD_BarGraph.c **** {
  23:.\Generated_Source\PSoC4/LCD_BarGraph.c ****     /* Character LCD_CUSTOM_0   */
  24:.\Generated_Source\PSoC4/LCD_BarGraph.c ****     0x00u,    0x00u,    0x00u,    0x00u,    0x00u,    0x00u,    0x00u,    0x00u, \
  25:.\Generated_Source\PSoC4/LCD_BarGraph.c ****     /* Character LCD_CUSTOM_1   */
  26:.\Generated_Source\PSoC4/LCD_BarGraph.c ****     0x10u,    0x10u,    0x10u,    0x10u,    0x10u,    0x10u,    0x10u,    0x10u, \
  27:.\Generated_Source\PSoC4/LCD_BarGraph.c ****     /* Character LCD_CUSTOM_2   */
  28:.\Generated_Source\PSoC4/LCD_BarGraph.c ****     0x18u,    0x18u,    0x18u,    0x18u,    0x18u,    0x18u,    0x18u,    0x18u, \
  29:.\Generated_Source\PSoC4/LCD_BarGraph.c ****     /* Character LCD_CUSTOM_3   */
  30:.\Generated_Source\PSoC4/LCD_BarGraph.c ****     0x1Cu,    0x1Cu,    0x1Cu,    0x1Cu,    0x1Cu,    0x1Cu,    0x1Cu,    0x1Cu, \
  31:.\Generated_Source\PSoC4/LCD_BarGraph.c ****     /* Character LCD_CUSTOM_4   */
  32:.\Generated_Source\PSoC4/LCD_BarGraph.c ****     0x1Eu,    0x1Eu,    0x1Eu,    0x1Eu,    0x1Eu,    0x1Eu,    0x1Eu,    0x1Eu, \
  33:.\Generated_Source\PSoC4/LCD_BarGraph.c ****     /* Character LCD_CUSTOM_5   */
  34:.\Generated_Source\PSoC4/LCD_BarGraph.c ****     0x1Fu,    0x1Fu,    0x1Fu,    0x1Fu,    0x1Fu,    0x1Fu,    0x1Fu,    0x1Fu, \
  35:.\Generated_Source\PSoC4/LCD_BarGraph.c ****     /* Character LCD_CUSTOM_6   */
  36:.\Generated_Source\PSoC4/LCD_BarGraph.c ****     0x00u,    0x00u,    0x00u,    0x00u,    0x00u,    0x00u,    0x00u,    0x00u, \
  37:.\Generated_Source\PSoC4/LCD_BarGraph.c ****     /* Character LCD_CUSTOM_7   */
  38:.\Generated_Source\PSoC4/LCD_BarGraph.c ****     0x00u,    0x00u,    0x00u,    0x00u,    0x00u,    0x00u,    0x00u,    0x00u \
  39:.\Generated_Source\PSoC4/LCD_BarGraph.c **** };
  40:.\Generated_Source\PSoC4/LCD_BarGraph.c **** 
  41:.\Generated_Source\PSoC4/LCD_BarGraph.c **** 
  42:.\Generated_Source\PSoC4/LCD_BarGraph.c **** /*******************************************************************************
  43:.\Generated_Source\PSoC4/LCD_BarGraph.c **** * Function Name: LCD_LoadCustomFonts
  44:.\Generated_Source\PSoC4/LCD_BarGraph.c **** ********************************************************************************
  45:.\Generated_Source\PSoC4/LCD_BarGraph.c **** *
  46:.\Generated_Source\PSoC4/LCD_BarGraph.c **** * Summary:
  47:.\Generated_Source\PSoC4/LCD_BarGraph.c **** *  Loads 8 custom font characters into the LCD Module for use.  Cannot use
  48:.\Generated_Source\PSoC4/LCD_BarGraph.c **** *  characters from two different font sets at once, but font sets can be
  49:.\Generated_Source\PSoC4/LCD_BarGraph.c **** *  switched out during runtime.
  50:.\Generated_Source\PSoC4/LCD_BarGraph.c **** *
  51:.\Generated_Source\PSoC4/LCD_BarGraph.c **** * Parameters:
  52:.\Generated_Source\PSoC4/LCD_BarGraph.c **** *  customData:  pointer to a constant array of 64 bytes representing 8 custom
  53:.\Generated_Source\PSoC4/LCD_BarGraph.c **** *               font characters.
  54:.\Generated_Source\PSoC4/LCD_BarGraph.c **** * Return:
  55:.\Generated_Source\PSoC4/LCD_BarGraph.c **** *  None.
  56:.\Generated_Source\PSoC4/LCD_BarGraph.c **** *
  57:.\Generated_Source\PSoC4/LCD_BarGraph.c **** * Theory:
  58:.\Generated_Source\PSoC4/LCD_BarGraph.c **** *  Prior to using this function user need to import the pointer to custom
  59:.\Generated_Source\PSoC4/LCD_BarGraph.c **** *  font array to your project by writting the following in the source code file
  60:.\Generated_Source\PSoC4/LCD_BarGraph.c **** *  where custom font will be used:
  61:.\Generated_Source\PSoC4/LCD_BarGraph.c **** *       extern uint8 const CYCODE LCD_Char_customFonts[];
  62:.\Generated_Source\PSoC4/LCD_BarGraph.c **** *  This function is not automatically called by the Start() routine and must be
  63:.\Generated_Source\PSoC4/LCD_BarGraph.c **** *  called manually by the user.
  64:.\Generated_Source\PSoC4/LCD_BarGraph.c **** *******************************************************************************/
  65:.\Generated_Source\PSoC4/LCD_BarGraph.c **** void LCD_LoadCustomFonts(uint8 const customData[]) 
  66:.\Generated_Source\PSoC4/LCD_BarGraph.c **** {
  96              		.loc 1 66 0
  97              		.cfi_startproc
  98 0000 80B5     		push	{r7, lr}
  99              		.cfi_def_cfa_offset 8
 100              		.cfi_offset 7, -8
 101              		.cfi_offset 14, -4
 102 0002 84B0     		sub	sp, sp, #16
 103              		.cfi_def_cfa_offset 24
 104 0004 00AF     		add	r7, sp, #0
 105              		.cfi_def_cfa_register 7
ARM GAS  C:\Users\Snufkin\AppData\Local\Temp\ccr4k6iA.s 			page 4


 106 0006 7860     		str	r0, [r7, #4]
  67:.\Generated_Source\PSoC4/LCD_BarGraph.c ****     uint8 indexU8;
  68:.\Generated_Source\PSoC4/LCD_BarGraph.c **** 
  69:.\Generated_Source\PSoC4/LCD_BarGraph.c ****     LCD_IsReady();
 107              		.loc 1 69 0
 108 0008 FFF7FEFF 		bl	LCD_IsReady
  70:.\Generated_Source\PSoC4/LCD_BarGraph.c ****     /* Set starting address in the LCD Module */
  71:.\Generated_Source\PSoC4/LCD_BarGraph.c ****     /* Optionally: Read the current address to restore at a later time */
  72:.\Generated_Source\PSoC4/LCD_BarGraph.c ****     LCD_WriteControl(LCD_CGRAM_0);
 109              		.loc 1 72 0
 110 000c 4020     		mov	r0, #64
 111 000e FFF7FEFF 		bl	LCD_WriteControl
  73:.\Generated_Source\PSoC4/LCD_BarGraph.c **** 
  74:.\Generated_Source\PSoC4/LCD_BarGraph.c ****     /* Load in the 64 bytes of CustomChar Data */
  75:.\Generated_Source\PSoC4/LCD_BarGraph.c ****     for(indexU8 = 0u; indexU8 < LCD_CUSTOM_CHAR_SET_LEN; indexU8++)
 112              		.loc 1 75 0
 113 0012 3B1C     		mov	r3, r7
 114 0014 0F33     		add	r3, r3, #15
 115 0016 0022     		mov	r2, #0
 116 0018 1A70     		strb	r2, [r3]
 117 001a 0FE0     		b	.L2
 118              	.L3:
  76:.\Generated_Source\PSoC4/LCD_BarGraph.c ****     {
  77:.\Generated_Source\PSoC4/LCD_BarGraph.c ****         /* Delay between each write */
  78:.\Generated_Source\PSoC4/LCD_BarGraph.c ****         LCD_WriteData(customData[indexU8]);
 119              		.loc 1 78 0 discriminator 2
 120 001c 3B1C     		mov	r3, r7
 121 001e 0F33     		add	r3, r3, #15
 122 0020 1B78     		ldrb	r3, [r3]
 123 0022 7A68     		ldr	r2, [r7, #4]
 124 0024 D318     		add	r3, r2, r3
 125 0026 1B78     		ldrb	r3, [r3]
 126 0028 181C     		mov	r0, r3
 127 002a FFF7FEFF 		bl	LCD_WriteData
  75:.\Generated_Source\PSoC4/LCD_BarGraph.c ****     for(indexU8 = 0u; indexU8 < LCD_CUSTOM_CHAR_SET_LEN; indexU8++)
 128              		.loc 1 75 0 discriminator 2
 129 002e 3B1C     		mov	r3, r7
 130 0030 0F33     		add	r3, r3, #15
 131 0032 1A78     		ldrb	r2, [r3]
 132 0034 3B1C     		mov	r3, r7
 133 0036 0F33     		add	r3, r3, #15
 134 0038 0132     		add	r2, r2, #1
 135 003a 1A70     		strb	r2, [r3]
 136              	.L2:
  75:.\Generated_Source\PSoC4/LCD_BarGraph.c ****     for(indexU8 = 0u; indexU8 < LCD_CUSTOM_CHAR_SET_LEN; indexU8++)
 137              		.loc 1 75 0 is_stmt 0 discriminator 1
 138 003c 3B1C     		mov	r3, r7
 139 003e 0F33     		add	r3, r3, #15
 140 0040 1B78     		ldrb	r3, [r3]
 141 0042 3F2B     		cmp	r3, #63
 142 0044 EAD9     		bls	.L3
  79:.\Generated_Source\PSoC4/LCD_BarGraph.c ****     }
  80:.\Generated_Source\PSoC4/LCD_BarGraph.c **** 
  81:.\Generated_Source\PSoC4/LCD_BarGraph.c ****     LCD_IsReady();
 143              		.loc 1 81 0 is_stmt 1
 144 0046 FFF7FEFF 		bl	LCD_IsReady
  82:.\Generated_Source\PSoC4/LCD_BarGraph.c ****     LCD_WriteControl(LCD_DDRAM_0);
ARM GAS  C:\Users\Snufkin\AppData\Local\Temp\ccr4k6iA.s 			page 5


 145              		.loc 1 82 0
 146 004a 8020     		mov	r0, #128
 147 004c FFF7FEFF 		bl	LCD_WriteControl
  83:.\Generated_Source\PSoC4/LCD_BarGraph.c **** }
 148              		.loc 1 83 0
 149 0050 BD46     		mov	sp, r7
 150 0052 04B0     		add	sp, sp, #16
 151              		@ sp needed
 152 0054 80BD     		pop	{r7, pc}
 153              		.cfi_endproc
 154              	.LFE0:
 155              		.size	LCD_LoadCustomFonts, .-LCD_LoadCustomFonts
 156              		.global	__aeabi_uidiv
 157              		.global	__aeabi_uidivmod
 158 0056 C046     		.section	.text.LCD_DrawHorizontalBG,"ax",%progbits
 159              		.align	2
 160              		.global	LCD_DrawHorizontalBG
 161              		.code	16
 162              		.thumb_func
 163              		.type	LCD_DrawHorizontalBG, %function
 164              	LCD_DrawHorizontalBG:
 165              	.LFB1:
  84:.\Generated_Source\PSoC4/LCD_BarGraph.c **** 
  85:.\Generated_Source\PSoC4/LCD_BarGraph.c **** 
  86:.\Generated_Source\PSoC4/LCD_BarGraph.c **** #if (LCD_CUSTOM_CHAR_SET == LCD_HORIZONTAL_BG)
  87:.\Generated_Source\PSoC4/LCD_BarGraph.c **** 
  88:.\Generated_Source\PSoC4/LCD_BarGraph.c ****     /*******************************************************************************
  89:.\Generated_Source\PSoC4/LCD_BarGraph.c ****     * Function Name: LCD_DrawHorizontalBG
  90:.\Generated_Source\PSoC4/LCD_BarGraph.c ****     ********************************************************************************
  91:.\Generated_Source\PSoC4/LCD_BarGraph.c ****     *
  92:.\Generated_Source\PSoC4/LCD_BarGraph.c ****     * Summary:
  93:.\Generated_Source\PSoC4/LCD_BarGraph.c ****     *  Draws the horizontal bargraph.
  94:.\Generated_Source\PSoC4/LCD_BarGraph.c ****     *
  95:.\Generated_Source\PSoC4/LCD_BarGraph.c ****     * Parameters:
  96:.\Generated_Source\PSoC4/LCD_BarGraph.c ****     *  row:            The row in which the bar graph starts.
  97:.\Generated_Source\PSoC4/LCD_BarGraph.c ****     *  column:         The column in which the bar graph starts.
  98:.\Generated_Source\PSoC4/LCD_BarGraph.c ****     *  maxCharacters:  The max length of the graph in whole characters.
  99:.\Generated_Source\PSoC4/LCD_BarGraph.c ****     *  value:          The current length or height of the graph in pixels.
 100:.\Generated_Source\PSoC4/LCD_BarGraph.c ****     *
 101:.\Generated_Source\PSoC4/LCD_BarGraph.c ****     * Return:
 102:.\Generated_Source\PSoC4/LCD_BarGraph.c ****     *  void.
 103:.\Generated_Source\PSoC4/LCD_BarGraph.c ****     *
 104:.\Generated_Source\PSoC4/LCD_BarGraph.c ****     *******************************************************************************/
 105:.\Generated_Source\PSoC4/LCD_BarGraph.c ****     void LCD_DrawHorizontalBG(uint8 row, uint8 column, uint8 maxCharacters, uint8 value) \
 106:.\Generated_Source\PSoC4/LCD_BarGraph.c ****                                                             
 107:.\Generated_Source\PSoC4/LCD_BarGraph.c ****     {
 166              		.loc 1 107 0
 167              		.cfi_startproc
 168 0000 90B5     		push	{r4, r7, lr}
 169              		.cfi_def_cfa_offset 12
 170              		.cfi_offset 4, -12
 171              		.cfi_offset 7, -8
 172              		.cfi_offset 14, -4
 173 0002 85B0     		sub	sp, sp, #20
 174              		.cfi_def_cfa_offset 32
 175 0004 00AF     		add	r7, sp, #0
 176              		.cfi_def_cfa_register 7
ARM GAS  C:\Users\Snufkin\AppData\Local\Temp\ccr4k6iA.s 			page 6


 177 0006 041C     		mov	r4, r0
 178 0008 081C     		mov	r0, r1
 179 000a 111C     		mov	r1, r2
 180 000c 1A1C     		mov	r2, r3
 181 000e FB1D     		add	r3, r7, #7
 182 0010 1C70     		strb	r4, [r3]
 183 0012 BB1D     		add	r3, r7, #6
 184 0014 1870     		strb	r0, [r3]
 185 0016 7B1D     		add	r3, r7, #5
 186 0018 1970     		strb	r1, [r3]
 187 001a 3B1D     		add	r3, r7, #4
 188 001c 1A70     		strb	r2, [r3]
 108:.\Generated_Source\PSoC4/LCD_BarGraph.c ****         /* 8-bit Counter */
 109:.\Generated_Source\PSoC4/LCD_BarGraph.c ****         uint8 count8;
 110:.\Generated_Source\PSoC4/LCD_BarGraph.c ****         uint8 fullChars;
 111:.\Generated_Source\PSoC4/LCD_BarGraph.c ****         uint8 remainingPixels;
 112:.\Generated_Source\PSoC4/LCD_BarGraph.c **** 
 113:.\Generated_Source\PSoC4/LCD_BarGraph.c ****         /* Number of full characters to draw */
 114:.\Generated_Source\PSoC4/LCD_BarGraph.c ****         fullChars = value / LCD_CHARACTER_WIDTH;
 189              		.loc 1 114 0
 190 001e 3C1C     		mov	r4, r7
 191 0020 0E34     		add	r4, r4, #14
 192 0022 3B1D     		add	r3, r7, #4
 193 0024 1B78     		ldrb	r3, [r3]
 194 0026 181C     		mov	r0, r3
 195 0028 0521     		mov	r1, #5
 196 002a FFF7FEFF 		bl	__aeabi_uidiv
 197 002e 031C     		mov	r3, r0
 198 0030 2370     		strb	r3, [r4]
 115:.\Generated_Source\PSoC4/LCD_BarGraph.c **** 
 116:.\Generated_Source\PSoC4/LCD_BarGraph.c ****         /* Number of remaining pixels to draw */
 117:.\Generated_Source\PSoC4/LCD_BarGraph.c ****         remainingPixels = value % LCD_CHARACTER_WIDTH;
 199              		.loc 1 117 0
 200 0032 3C1C     		mov	r4, r7
 201 0034 0D34     		add	r4, r4, #13
 202 0036 3B1D     		add	r3, r7, #4
 203 0038 1B78     		ldrb	r3, [r3]
 204 003a 181C     		mov	r0, r3
 205 003c 0521     		mov	r1, #5
 206 003e FFF7FEFF 		bl	__aeabi_uidivmod
 207 0042 0B1C     		mov	r3, r1
 208 0044 2370     		strb	r3, [r4]
 118:.\Generated_Source\PSoC4/LCD_BarGraph.c **** 
 119:.\Generated_Source\PSoC4/LCD_BarGraph.c ****         /* Ensure that the maximum character limit is followed. */
 120:.\Generated_Source\PSoC4/LCD_BarGraph.c ****         if(fullChars >= maxCharacters)
 209              		.loc 1 120 0
 210 0046 3A1C     		mov	r2, r7
 211 0048 0E32     		add	r2, r2, #14
 212 004a 7B1D     		add	r3, r7, #5
 213 004c 1278     		ldrb	r2, [r2]
 214 004e 1B78     		ldrb	r3, [r3]
 215 0050 9A42     		cmp	r2, r3
 216 0052 04D3     		bcc	.L5
 121:.\Generated_Source\PSoC4/LCD_BarGraph.c ****         {
 122:.\Generated_Source\PSoC4/LCD_BarGraph.c ****             fullChars = maxCharacters;
 217              		.loc 1 122 0
 218 0054 3B1C     		mov	r3, r7
ARM GAS  C:\Users\Snufkin\AppData\Local\Temp\ccr4k6iA.s 			page 7


 219 0056 0E33     		add	r3, r3, #14
 220 0058 7A1D     		add	r2, r7, #5
 221 005a 1278     		ldrb	r2, [r2]
 222 005c 1A70     		strb	r2, [r3]
 223              	.L5:
 123:.\Generated_Source\PSoC4/LCD_BarGraph.c ****         }
 124:.\Generated_Source\PSoC4/LCD_BarGraph.c **** 
 125:.\Generated_Source\PSoC4/LCD_BarGraph.c ****         /* Put Cursor at start position */
 126:.\Generated_Source\PSoC4/LCD_BarGraph.c ****         LCD_Position(row, column);
 224              		.loc 1 126 0
 225 005e FB1D     		add	r3, r7, #7
 226 0060 1A78     		ldrb	r2, [r3]
 227 0062 BB1D     		add	r3, r7, #6
 228 0064 1B78     		ldrb	r3, [r3]
 229 0066 101C     		mov	r0, r2
 230 0068 191C     		mov	r1, r3
 231 006a FFF7FEFF 		bl	LCD_Position
 127:.\Generated_Source\PSoC4/LCD_BarGraph.c **** 
 128:.\Generated_Source\PSoC4/LCD_BarGraph.c ****         /* Write full characters */
 129:.\Generated_Source\PSoC4/LCD_BarGraph.c ****         for(count8 = 0u; count8 < fullChars; count8++)
 232              		.loc 1 129 0
 233 006e 3B1C     		mov	r3, r7
 234 0070 0F33     		add	r3, r3, #15
 235 0072 0022     		mov	r2, #0
 236 0074 1A70     		strb	r2, [r3]
 237 0076 09E0     		b	.L6
 238              	.L7:
 130:.\Generated_Source\PSoC4/LCD_BarGraph.c ****         {
 131:.\Generated_Source\PSoC4/LCD_BarGraph.c ****             LCD_WriteData(LCD_CUSTOM_5);
 239              		.loc 1 131 0 discriminator 2
 240 0078 0520     		mov	r0, #5
 241 007a FFF7FEFF 		bl	LCD_WriteData
 129:.\Generated_Source\PSoC4/LCD_BarGraph.c ****         for(count8 = 0u; count8 < fullChars; count8++)
 242              		.loc 1 129 0 discriminator 2
 243 007e 3B1C     		mov	r3, r7
 244 0080 0F33     		add	r3, r3, #15
 245 0082 1A78     		ldrb	r2, [r3]
 246 0084 3B1C     		mov	r3, r7
 247 0086 0F33     		add	r3, r3, #15
 248 0088 0132     		add	r2, r2, #1
 249 008a 1A70     		strb	r2, [r3]
 250              	.L6:
 129:.\Generated_Source\PSoC4/LCD_BarGraph.c ****         for(count8 = 0u; count8 < fullChars; count8++)
 251              		.loc 1 129 0 is_stmt 0 discriminator 1
 252 008c 3A1C     		mov	r2, r7
 253 008e 0F32     		add	r2, r2, #15
 254 0090 3B1C     		mov	r3, r7
 255 0092 0E33     		add	r3, r3, #14
 256 0094 1278     		ldrb	r2, [r2]
 257 0096 1B78     		ldrb	r3, [r3]
 258 0098 9A42     		cmp	r2, r3
 259 009a EDD3     		bcc	.L7
 132:.\Generated_Source\PSoC4/LCD_BarGraph.c ****         }
 133:.\Generated_Source\PSoC4/LCD_BarGraph.c **** 
 134:.\Generated_Source\PSoC4/LCD_BarGraph.c ****         if(fullChars < maxCharacters)
 260              		.loc 1 134 0 is_stmt 1
 261 009c 3A1C     		mov	r2, r7
ARM GAS  C:\Users\Snufkin\AppData\Local\Temp\ccr4k6iA.s 			page 8


 262 009e 0E32     		add	r2, r2, #14
 263 00a0 7B1D     		add	r3, r7, #5
 264 00a2 1278     		ldrb	r2, [r2]
 265 00a4 1B78     		ldrb	r3, [r3]
 266 00a6 9A42     		cmp	r2, r3
 267 00a8 28D2     		bcs	.L4
 135:.\Generated_Source\PSoC4/LCD_BarGraph.c ****         {
 136:.\Generated_Source\PSoC4/LCD_BarGraph.c ****             /* Write remaining pixels */
 137:.\Generated_Source\PSoC4/LCD_BarGraph.c ****             LCD_WriteData(remainingPixels);
 268              		.loc 1 137 0
 269 00aa 3B1C     		mov	r3, r7
 270 00ac 0D33     		add	r3, r3, #13
 271 00ae 1B78     		ldrb	r3, [r3]
 272 00b0 181C     		mov	r0, r3
 273 00b2 FFF7FEFF 		bl	LCD_WriteData
 138:.\Generated_Source\PSoC4/LCD_BarGraph.c **** 
 139:.\Generated_Source\PSoC4/LCD_BarGraph.c ****             if(fullChars < (maxCharacters - 1u))
 274              		.loc 1 139 0
 275 00b6 3B1C     		mov	r3, r7
 276 00b8 0E33     		add	r3, r3, #14
 277 00ba 1A78     		ldrb	r2, [r3]
 278 00bc 7B1D     		add	r3, r7, #5
 279 00be 1B78     		ldrb	r3, [r3]
 280 00c0 013B     		sub	r3, r3, #1
 281 00c2 9A42     		cmp	r2, r3
 282 00c4 1AD2     		bcs	.L4
 140:.\Generated_Source\PSoC4/LCD_BarGraph.c ****             {
 141:.\Generated_Source\PSoC4/LCD_BarGraph.c ****                 /* Fill with whitespace to end of bar graph */
 142:.\Generated_Source\PSoC4/LCD_BarGraph.c ****                 for(count8 = 0u; count8 < (maxCharacters - fullChars - 1u); count8++)
 283              		.loc 1 142 0
 284 00c6 3B1C     		mov	r3, r7
 285 00c8 0F33     		add	r3, r3, #15
 286 00ca 0022     		mov	r2, #0
 287 00cc 1A70     		strb	r2, [r3]
 288 00ce 09E0     		b	.L9
 289              	.L10:
 143:.\Generated_Source\PSoC4/LCD_BarGraph.c ****                 {
 144:.\Generated_Source\PSoC4/LCD_BarGraph.c ****                     LCD_WriteData(LCD_CUSTOM_0);
 290              		.loc 1 144 0 discriminator 2
 291 00d0 0020     		mov	r0, #0
 292 00d2 FFF7FEFF 		bl	LCD_WriteData
 142:.\Generated_Source\PSoC4/LCD_BarGraph.c ****                 for(count8 = 0u; count8 < (maxCharacters - fullChars - 1u); count8++)
 293              		.loc 1 142 0 discriminator 2
 294 00d6 3B1C     		mov	r3, r7
 295 00d8 0F33     		add	r3, r3, #15
 296 00da 1A78     		ldrb	r2, [r3]
 297 00dc 3B1C     		mov	r3, r7
 298 00de 0F33     		add	r3, r3, #15
 299 00e0 0132     		add	r2, r2, #1
 300 00e2 1A70     		strb	r2, [r3]
 301              	.L9:
 142:.\Generated_Source\PSoC4/LCD_BarGraph.c ****                 for(count8 = 0u; count8 < (maxCharacters - fullChars - 1u); count8++)
 302              		.loc 1 142 0 is_stmt 0 discriminator 1
 303 00e4 3B1C     		mov	r3, r7
 304 00e6 0F33     		add	r3, r3, #15
 305 00e8 1A78     		ldrb	r2, [r3]
 306 00ea 7B1D     		add	r3, r7, #5
ARM GAS  C:\Users\Snufkin\AppData\Local\Temp\ccr4k6iA.s 			page 9


 307 00ec 1978     		ldrb	r1, [r3]
 308 00ee 3B1C     		mov	r3, r7
 309 00f0 0E33     		add	r3, r3, #14
 310 00f2 1B78     		ldrb	r3, [r3]
 311 00f4 CB1A     		sub	r3, r1, r3
 312 00f6 013B     		sub	r3, r3, #1
 313 00f8 9A42     		cmp	r2, r3
 314 00fa E9D3     		bcc	.L10
 315              	.L4:
 145:.\Generated_Source\PSoC4/LCD_BarGraph.c ****                 }
 146:.\Generated_Source\PSoC4/LCD_BarGraph.c ****             }
 147:.\Generated_Source\PSoC4/LCD_BarGraph.c ****         }
 148:.\Generated_Source\PSoC4/LCD_BarGraph.c ****     }
 316              		.loc 1 148 0 is_stmt 1
 317 00fc BD46     		mov	sp, r7
 318 00fe 05B0     		add	sp, sp, #20
 319              		@ sp needed
 320 0100 90BD     		pop	{r4, r7, pc}
 321              		.cfi_endproc
 322              	.LFE1:
 323              		.size	LCD_DrawHorizontalBG, .-LCD_DrawHorizontalBG
 324 0102 C046     		.text
 325              	.Letext0:
 326              		.file 2 ".\\Generated_Source\\PSoC4\\cytypes.h"