ARM GAS  C:\Users\Snufkin\AppData\Local\Temp\ccCMbczD.s 			page 1


   1              		.cpu cortex-m0
   2              		.fpu softvfp
   3              		.eabi_attribute 20, 1
   4              		.eabi_attribute 21, 1
   5              		.eabi_attribute 23, 3
   6              		.eabi_attribute 24, 1
   7              		.eabi_attribute 25, 1
   8              		.eabi_attribute 26, 1
   9              		.eabi_attribute 30, 6
  10              		.eabi_attribute 34, 0
  11              		.eabi_attribute 18, 4
  12              		.code	16
  13              		.file	"main.c"
  14              		.text
  15              	.Ltext0:
  16              		.cfi_sections	.debug_frame
  17              		.comm	target,2,2
  18              		.comm	running,1,1
  19              		.comm	V_new,2,2
  20              		.comm	time,4,4
  21              		.section	.rodata
  22              		.align	2
  23              	.LC1:
  24 0000 53573220 		.ascii	"SW2 pressed\000"
  24      70726573 
  24      73656400 
  25              		.section	.text.sw_int_ISR,"ax",%progbits
  26              		.align	2
  27              		.global	sw_int_ISR
  28              		.code	16
  29              		.thumb_func
  30              		.type	sw_int_ISR, %function
  31              	sw_int_ISR:
  32              	.LFB33:
  33              		.file 1 ".\\main.c"
   1:.\main.c      **** /* ========================================
   2:.\main.c      ****  *
   3:.\main.c      ****  * Copyright Kristian Thomsen, 2015
   4:.\main.c      ****  * All Rights Reserved
   5:.\main.c      ****  * UNPUBLISHED, LICENSED SOFTWARE.
   6:.\main.c      ****  *
   7:.\main.c      ****  * ========================================
   8:.\main.c      **** */
   9:.\main.c      **** #include <project.h>
  10:.\main.c      **** #include <stdio.h>
  11:.\main.c      **** #include "menus.h"
  12:.\main.c      **** #include "keypad.h"
  13:.\main.c      **** 
  14:.\main.c      **** #define CONVERT_TO_ASCII (0x30u)
  15:.\main.c      **** #define TIMER_MAX 4294967296
  16:.\main.c      **** //#define debugging1 //Show time for checking result from ADC
  17:.\main.c      **** #define debugging2 //Show time for starting the timer
  18:.\main.c      **** 
  19:.\main.c      **** volatile uint8 running; //flag - false = 0, true != 0
  20:.\main.c      **** uint16 V_new;
  21:.\main.c      **** uint32 time;
  22:.\main.c      **** 
ARM GAS  C:\Users\Snufkin\AppData\Local\Temp\ccCMbczD.s 			page 2


  23:.\main.c      **** //Prototypes
  24:.\main.c      **** CY_ISR_PROTO(sw_int_ISR);
  25:.\main.c      **** void print_measurement(uint32 time);
  26:.\main.c      **** int8 updateBTN(void);
  27:.\main.c      **** 
  28:.\main.c      **** CY_ISR(sw_int_ISR){
  34              		.loc 1 28 0
  35              		.cfi_startproc
  36 0000 80B5     		push	{r7, lr}
  37              		.cfi_def_cfa_offset 8
  38              		.cfi_offset 7, -8
  39              		.cfi_offset 14, -4
  40 0002 00AF     		add	r7, sp, #0
  41              		.cfi_def_cfa_register 7
  29:.\main.c      ****     running = 1;
  42              		.loc 1 29 0
  43 0004 0A4B     		ldr	r3, .L2
  44 0006 0122     		mov	r2, #1
  45 0008 1A70     		strb	r2, [r3]
  30:.\main.c      ****     LCD_ClearDisplay();
  46              		.loc 1 30 0
  47 000a 0120     		mov	r0, #1
  48 000c FFF7FEFF 		bl	LCD_WriteControl
  31:.\main.c      ****     LCD_PrintString("SW2 pressed");
  49              		.loc 1 31 0
  50 0010 084B     		ldr	r3, .L2+4
  51 0012 181C     		mov	r0, r3
  52 0014 FFF7FEFF 		bl	LCD_PrintString
  32:.\main.c      ****     Timer_1_WriteCounter(0);
  53              		.loc 1 32 0
  54 0018 0020     		mov	r0, #0
  55 001a FFF7FEFF 		bl	Timer_1_WriteCounter
  33:.\main.c      ****     B_press_Write(1);
  56              		.loc 1 33 0
  57 001e 0120     		mov	r0, #1
  58 0020 FFF7FEFF 		bl	B_press_Write
  34:.\main.c      ****     #ifdef debugging2
  35:.\main.c      ****         Test_pin_Write(1);
  59              		.loc 1 35 0
  60 0024 0120     		mov	r0, #1
  61 0026 FFF7FEFF 		bl	Test_pin_Write
  36:.\main.c      ****     #endif
  37:.\main.c      ****     
  38:.\main.c      **** }
  62              		.loc 1 38 0
  63 002a BD46     		mov	sp, r7
  64              		@ sp needed
  65 002c 80BD     		pop	{r7, pc}
  66              	.L3:
  67 002e C046     		.align	2
  68              	.L2:
  69 0030 00000000 		.word	running
  70 0034 00000000 		.word	.LC1
  71              		.cfi_endproc
  72              	.LFE33:
  73              		.size	sw_int_ISR, .-sw_int_ISR
  74              		.section	.rodata
ARM GAS  C:\Users\Snufkin\AppData\Local\Temp\ccCMbczD.s 			page 3


  75              		.align	2
  76              	.LC5:
  77 000c 496E6974 		.ascii	"Initialized..\000"
  77      69616C69 
  77      7A65642E 
  77      2E00
  78              		.section	.text.main,"ax",%progbits
  79              		.align	2
  80              		.global	main
  81              		.code	16
  82              		.thumb_func
  83              		.type	main, %function
  84              	main:
  85              	.LFB34:
  39:.\main.c      **** 
  40:.\main.c      **** int main(){
  86              		.loc 1 40 0
  87              		.cfi_startproc
  88 0000 80B5     		push	{r7, lr}
  89              		.cfi_def_cfa_offset 8
  90              		.cfi_offset 7, -8
  91              		.cfi_offset 14, -4
  92 0002 00AF     		add	r7, sp, #0
  93              		.cfi_def_cfa_register 7
  41:.\main.c      ****     target = 30;
  94              		.loc 1 41 0
  95 0004 2E4B     		ldr	r3, .L9
  96 0006 1E22     		mov	r2, #30
  97 0008 1A80     		strh	r2, [r3]
  42:.\main.c      ****     Timer_1_Start();
  98              		.loc 1 42 0
  99 000a FFF7FEFF 		bl	Timer_1_Start
  43:.\main.c      ****     sw_int_StartEx(sw_int_ISR);
 100              		.loc 1 43 0
 101 000e 2D4B     		ldr	r3, .L9+4
 102 0010 181C     		mov	r0, r3
 103 0012 FFF7FEFF 		bl	sw_int_StartEx
  44:.\main.c      ****     B_press_Write(0);
 104              		.loc 1 44 0
 105 0016 0020     		mov	r0, #0
 106 0018 FFF7FEFF 		bl	B_press_Write
  45:.\main.c      ****     Opamp_Start();
 107              		.loc 1 45 0
 108 001c FFF7FEFF 		bl	Opamp_Start
  46:.\main.c      ****     ADC_Start();
 109              		.loc 1 46 0
 110 0020 FFF7FEFF 		bl	ADC_Start
  47:.\main.c      ****     ADC_StartConvert();
 111              		.loc 1 47 0
 112 0024 FFF7FEFF 		bl	ADC_StartConvert
  48:.\main.c      ****     LCD_Start();
 113              		.loc 1 48 0
 114 0028 FFF7FEFF 		bl	LCD_Start
  49:.\main.c      ****     LCD_Position(0,0);
 115              		.loc 1 49 0
 116 002c 0020     		mov	r0, #0
 117 002e 0021     		mov	r1, #0
ARM GAS  C:\Users\Snufkin\AppData\Local\Temp\ccCMbczD.s 			page 4


 118 0030 FFF7FEFF 		bl	LCD_Position
  50:.\main.c      ****     LCD_PrintString("Initialized..");
 119              		.loc 1 50 0
 120 0034 244B     		ldr	r3, .L9+8
 121 0036 181C     		mov	r0, r3
 122 0038 FFF7FEFF 		bl	LCD_PrintString
  51:.\main.c      ****     LCD_Position(1,7);
 123              		.loc 1 51 0
 124 003c 0120     		mov	r0, #1
 125 003e 0721     		mov	r1, #7
 126 0040 FFF7FEFF 		bl	LCD_Position
  52:.\main.c      ****     LCD_PutChar(LCD_CUSTOM_0);
 127              		.loc 1 52 0
 128 0044 0020     		mov	r0, #0
 129 0046 FFF7FEFF 		bl	LCD_PutChar
  53:.\main.c      ****     LCD_PutChar(LCD_CUSTOM_1);
 130              		.loc 1 53 0
 131 004a 0120     		mov	r0, #1
 132 004c FFF7FEFF 		bl	LCD_PutChar
  54:.\main.c      ****     LCD_PutChar(LCD_CUSTOM_2);
 133              		.loc 1 54 0
 134 0050 0220     		mov	r0, #2
 135 0052 FFF7FEFF 		bl	LCD_PutChar
  55:.\main.c      ****     LCD_PutChar(LCD_CUSTOM_4);
 136              		.loc 1 55 0
 137 0056 0420     		mov	r0, #4
 138 0058 FFF7FEFF 		bl	LCD_PutChar
  56:.\main.c      ****     LCD_PutChar(LCD_CUSTOM_5);
 139              		.loc 1 56 0
 140 005c 0520     		mov	r0, #5
 141 005e FFF7FEFF 		bl	LCD_PutChar
  57:.\main.c      ****     
  58:.\main.c      ****     CyGlobalIntEnable;
 142              		.loc 1 58 0
 143              	@ 58 ".\main.c" 1
 144 0062 62B6     		CPSIE   i
 145              	@ 0 "" 2
 146              		.code	16
 147              	.L8:
  59:.\main.c      ****     
  60:.\main.c      ****     while(1){
  61:.\main.c      ****         if (running){
 148              		.loc 1 61 0
 149 0064 194B     		ldr	r3, .L9+12
 150 0066 1B78     		ldrb	r3, [r3]
 151 0068 DBB2     		uxtb	r3, r3
 152 006a 002B     		cmp	r3, #0
 153 006c 23D0     		beq	.L5
  62:.\main.c      ****             #ifdef debugging1
  63:.\main.c      ****                 Test_pin_Write(1);
  64:.\main.c      ****             #endif
  65:.\main.c      ****             if(ADC_GetResult16(0) > target){
 154              		.loc 1 65 0
 155 006e 0020     		mov	r0, #0
 156 0070 FFF7FEFF 		bl	ADC_GetResult16
 157 0074 031C     		mov	r3, r0
 158 0076 1A1C     		mov	r2, r3
ARM GAS  C:\Users\Snufkin\AppData\Local\Temp\ccCMbczD.s 			page 5


 159 0078 114B     		ldr	r3, .L9
 160 007a 1B88     		ldrh	r3, [r3]
 161 007c 9A42     		cmp	r2, r3
 162 007e 1DDD     		ble	.L7
  66:.\main.c      ****                 time = Timer_1_ReadCounter();
 163              		.loc 1 66 0
 164 0080 FFF7FEFF 		bl	Timer_1_ReadCounter
 165 0084 021C     		mov	r2, r0
 166 0086 124B     		ldr	r3, .L9+16
 167 0088 1A60     		str	r2, [r3]
  67:.\main.c      ****                 #ifdef debugging2
  68:.\main.c      ****                     Test_pin_Write(0);
 168              		.loc 1 68 0
 169 008a 0020     		mov	r0, #0
 170 008c FFF7FEFF 		bl	Test_pin_Write
  69:.\main.c      ****                 #endif
  70:.\main.c      ****                 time = TIMER_MAX - time;
 171              		.loc 1 70 0
 172 0090 0F4B     		ldr	r3, .L9+16
 173 0092 1B68     		ldr	r3, [r3]
 174 0094 5A42     		neg	r2, r3
 175 0096 0E4B     		ldr	r3, .L9+16
 176 0098 1A60     		str	r2, [r3]
  71:.\main.c      ****                 Timer_1_Stop();
 177              		.loc 1 71 0
 178 009a FFF7FEFF 		bl	Timer_1_Stop
  72:.\main.c      ****                 running = 0;
 179              		.loc 1 72 0
 180 009e 0B4B     		ldr	r3, .L9+12
 181 00a0 0022     		mov	r2, #0
 182 00a2 1A70     		strb	r2, [r3]
  73:.\main.c      ****                 B_press_Write(0);
 183              		.loc 1 73 0
 184 00a4 0020     		mov	r0, #0
 185 00a6 FFF7FEFF 		bl	B_press_Write
  74:.\main.c      ****                 print_measurement(time);
 186              		.loc 1 74 0
 187 00aa 094B     		ldr	r3, .L9+16
 188 00ac 1B68     		ldr	r3, [r3]
 189 00ae 181C     		mov	r0, r3
 190 00b0 FFF7FEFF 		bl	print_measurement
  75:.\main.c      ****             }
  76:.\main.c      ****             #ifdef debugging1
  77:.\main.c      ****                 Test_pin_Write(0);
  78:.\main.c      ****             #endif
  79:.\main.c      ****         }
  80:.\main.c      ****         else{
  81:.\main.c      ****             updateMenu();
  82:.\main.c      ****         }
  83:.\main.c      ****     }
 191              		.loc 1 83 0
 192 00b4 D6E7     		b	.L8
 193              	.L5:
  81:.\main.c      ****             updateMenu();
 194              		.loc 1 81 0
 195 00b6 FFF7FEFF 		bl	updateMenu
 196              		.loc 1 83 0
ARM GAS  C:\Users\Snufkin\AppData\Local\Temp\ccCMbczD.s 			page 6


 197 00ba D3E7     		b	.L8
 198              	.L7:
 199 00bc D2E7     		b	.L8
 200              	.L10:
 201 00be C046     		.align	2
 202              	.L9:
 203 00c0 00000000 		.word	target
 204 00c4 00000000 		.word	sw_int_ISR
 205 00c8 0C000000 		.word	.LC5
 206 00cc 00000000 		.word	running
 207 00d0 00000000 		.word	time
 208              		.cfi_endproc
 209              	.LFE34:
 210              		.size	main, .-main
 211              		.global	__aeabi_uldivmod
 212              		.section	.rodata
 213 001a 0000     		.align	2
 214              	.LC9:
 215 001c 20202020 		.ascii	"                \000"
 215      20202020 
 215      20202020 
 215      20202020 
 215      00
 216 002d 000000   		.align	2
 217              	.LC11:
 218 0030 743A2000 		.ascii	"t: \000"
 219              		.align	2
 220              	.LC13:
 221 0034 757300   		.ascii	"us\000"
 222 0037 00       		.section	.text.print_measurement,"ax",%progbits
 223              		.align	2
 224              		.global	print_measurement
 225              		.code	16
 226              		.thumb_func
 227              		.type	print_measurement, %function
 228              	print_measurement:
 229              	.LFB35:
  84:.\main.c      **** }
  85:.\main.c      **** 
  86:.\main.c      **** void print_measurement(uint32 time){
 230              		.loc 1 86 0
 231              		.cfi_startproc
 232 0000 F0B5     		push	{r4, r5, r6, r7, lr}
 233              		.cfi_def_cfa_offset 20
 234              		.cfi_offset 4, -20
 235              		.cfi_offset 5, -16
 236              		.cfi_offset 6, -12
 237              		.cfi_offset 7, -8
 238              		.cfi_offset 14, -4
 239 0002 87B0     		sub	sp, sp, #28
 240              		.cfi_def_cfa_offset 48
 241 0004 00AF     		add	r7, sp, #0
 242              		.cfi_def_cfa_register 7
 243 0006 F860     		str	r0, [r7, #12]
  87:.\main.c      ****     uint64 time_us = ((uint64)time * 125) / 3000;
 244              		.loc 1 87 0
 245 0008 FB68     		ldr	r3, [r7, #12]
ARM GAS  C:\Users\Snufkin\AppData\Local\Temp\ccCMbczD.s 			page 7


 246 000a 191C     		mov	r1, r3
 247 000c 0023     		mov	r3, #0
 248 000e 1A1C     		mov	r2, r3
 249 0010 0B1C     		mov	r3, r1
 250 0012 141C     		mov	r4, r2
 251 0014 D80E     		lsr	r0, r3, #27
 252 0016 6501     		lsl	r5, r4, #5
 253 0018 7D60     		str	r5, [r7, #4]
 254 001a 7D68     		ldr	r5, [r7, #4]
 255 001c 0543     		orr	r5, r0
 256 001e 7D60     		str	r5, [r7, #4]
 257 0020 5801     		lsl	r0, r3, #5
 258 0022 3860     		str	r0, [r7]
 259 0024 3B68     		ldr	r3, [r7]
 260 0026 7C68     		ldr	r4, [r7, #4]
 261 0028 5B1A     		sub	r3, r3, r1
 262 002a 9441     		sbc	r4, r4, r2
 263 002c 980F     		lsr	r0, r3, #30
 264 002e A600     		lsl	r6, r4, #2
 265 0030 0643     		orr	r6, r0
 266 0032 9D00     		lsl	r5, r3, #2
 267 0034 2B1C     		mov	r3, r5
 268 0036 341C     		mov	r4, r6
 269 0038 5B18     		add	r3, r3, r1
 270 003a 5441     		adc	r4, r4, r2
 271 003c 181C     		mov	r0, r3
 272 003e 211C     		mov	r1, r4
 273 0040 884B     		ldr	r3, .L12+4
 274 0042 874A     		ldr	r2, .L12
 275 0044 FFF7FEFF 		bl	__aeabi_uldivmod
 276 0048 031C     		mov	r3, r0
 277 004a 0C1C     		mov	r4, r1
 278 004c 3B61     		str	r3, [r7, #16]
 279 004e 7C61     		str	r4, [r7, #20]
  88:.\main.c      ****     LCD_Position(1,0);
 280              		.loc 1 88 0
 281 0050 0120     		mov	r0, #1
 282 0052 0021     		mov	r1, #0
 283 0054 FFF7FEFF 		bl	LCD_Position
  89:.\main.c      ****     LCD_PrintString("                ");
 284              		.loc 1 89 0
 285 0058 8F4B     		ldr	r3, .L12+56
 286 005a 181C     		mov	r0, r3
 287 005c FFF7FEFF 		bl	LCD_PrintString
  90:.\main.c      ****     LCD_Position(1,0);
 288              		.loc 1 90 0
 289 0060 0120     		mov	r0, #1
 290 0062 0021     		mov	r1, #0
 291 0064 FFF7FEFF 		bl	LCD_Position
  91:.\main.c      ****     LCD_PrintString("t: ");
 292              		.loc 1 91 0
 293 0068 8C4B     		ldr	r3, .L12+60
 294 006a 181C     		mov	r0, r3
 295 006c FFF7FEFF 		bl	LCD_PrintString
  92:.\main.c      ****     LCD_PutChar(time_us/100000000u + CONVERT_TO_ASCII);
 296              		.loc 1 92 0
 297 0070 3B69     		ldr	r3, [r7, #16]
ARM GAS  C:\Users\Snufkin\AppData\Local\Temp\ccCMbczD.s 			page 8


 298 0072 7C69     		ldr	r4, [r7, #20]
 299 0074 181C     		mov	r0, r3
 300 0076 211C     		mov	r1, r4
 301 0078 7B4A     		ldr	r2, .L12+8
 302 007a 7C4B     		ldr	r3, .L12+12
 303 007c FFF7FEFF 		bl	__aeabi_uldivmod
 304 0080 031C     		mov	r3, r0
 305 0082 0C1C     		mov	r4, r1
 306 0084 DBB2     		uxtb	r3, r3
 307 0086 3033     		add	r3, r3, #48
 308 0088 DBB2     		uxtb	r3, r3
 309 008a 181C     		mov	r0, r3
 310 008c FFF7FEFF 		bl	LCD_PutChar
  93:.\main.c      ****     time_us %= 100000000;
 311              		.loc 1 93 0
 312 0090 3B69     		ldr	r3, [r7, #16]
 313 0092 7C69     		ldr	r4, [r7, #20]
 314 0094 181C     		mov	r0, r3
 315 0096 211C     		mov	r1, r4
 316 0098 734A     		ldr	r2, .L12+8
 317 009a 744B     		ldr	r3, .L12+12
 318 009c FFF7FEFF 		bl	__aeabi_uldivmod
 319 00a0 1C1C     		mov	r4, r3
 320 00a2 131C     		mov	r3, r2
 321 00a4 3B61     		str	r3, [r7, #16]
 322 00a6 7C61     		str	r4, [r7, #20]
  94:.\main.c      ****     LCD_PutChar(time_us/10000000u + CONVERT_TO_ASCII);
 323              		.loc 1 94 0
 324 00a8 3B69     		ldr	r3, [r7, #16]
 325 00aa 7C69     		ldr	r4, [r7, #20]
 326 00ac 181C     		mov	r0, r3
 327 00ae 211C     		mov	r1, r4
 328 00b0 6F4A     		ldr	r2, .L12+16
 329 00b2 704B     		ldr	r3, .L12+20
 330 00b4 FFF7FEFF 		bl	__aeabi_uldivmod
 331 00b8 031C     		mov	r3, r0
 332 00ba 0C1C     		mov	r4, r1
 333 00bc DBB2     		uxtb	r3, r3
 334 00be 3033     		add	r3, r3, #48
 335 00c0 DBB2     		uxtb	r3, r3
 336 00c2 181C     		mov	r0, r3
 337 00c4 FFF7FEFF 		bl	LCD_PutChar
  95:.\main.c      ****     time_us %= 10000000;
 338              		.loc 1 95 0
 339 00c8 3B69     		ldr	r3, [r7, #16]
 340 00ca 7C69     		ldr	r4, [r7, #20]
 341 00cc 181C     		mov	r0, r3
 342 00ce 211C     		mov	r1, r4
 343 00d0 674A     		ldr	r2, .L12+16
 344 00d2 684B     		ldr	r3, .L12+20
 345 00d4 FFF7FEFF 		bl	__aeabi_uldivmod
 346 00d8 1C1C     		mov	r4, r3
 347 00da 131C     		mov	r3, r2
 348 00dc 3B61     		str	r3, [r7, #16]
 349 00de 7C61     		str	r4, [r7, #20]
  96:.\main.c      ****     LCD_PutChar(time_us/1000000u + CONVERT_TO_ASCII);
 350              		.loc 1 96 0
ARM GAS  C:\Users\Snufkin\AppData\Local\Temp\ccCMbczD.s 			page 9


 351 00e0 3B69     		ldr	r3, [r7, #16]
 352 00e2 7C69     		ldr	r4, [r7, #20]
 353 00e4 181C     		mov	r0, r3
 354 00e6 211C     		mov	r1, r4
 355 00e8 634A     		ldr	r2, .L12+24
 356 00ea 644B     		ldr	r3, .L12+28
 357 00ec FFF7FEFF 		bl	__aeabi_uldivmod
 358 00f0 031C     		mov	r3, r0
 359 00f2 0C1C     		mov	r4, r1
 360 00f4 DBB2     		uxtb	r3, r3
 361 00f6 3033     		add	r3, r3, #48
 362 00f8 DBB2     		uxtb	r3, r3
 363 00fa 181C     		mov	r0, r3
 364 00fc FFF7FEFF 		bl	LCD_PutChar
  97:.\main.c      ****     time_us %= 1000000;
 365              		.loc 1 97 0
 366 0100 3B69     		ldr	r3, [r7, #16]
 367 0102 7C69     		ldr	r4, [r7, #20]
 368 0104 181C     		mov	r0, r3
 369 0106 211C     		mov	r1, r4
 370 0108 5B4A     		ldr	r2, .L12+24
 371 010a 5C4B     		ldr	r3, .L12+28
 372 010c FFF7FEFF 		bl	__aeabi_uldivmod
 373 0110 1C1C     		mov	r4, r3
 374 0112 131C     		mov	r3, r2
 375 0114 3B61     		str	r3, [r7, #16]
 376 0116 7C61     		str	r4, [r7, #20]
  98:.\main.c      ****     LCD_PutChar(',');
 377              		.loc 1 98 0
 378 0118 2C20     		mov	r0, #44
 379 011a FFF7FEFF 		bl	LCD_PutChar
  99:.\main.c      ****     LCD_PutChar(time_us/100000u + CONVERT_TO_ASCII);
 380              		.loc 1 99 0
 381 011e 3B69     		ldr	r3, [r7, #16]
 382 0120 7C69     		ldr	r4, [r7, #20]
 383 0122 181C     		mov	r0, r3
 384 0124 211C     		mov	r1, r4
 385 0126 564A     		ldr	r2, .L12+32
 386 0128 564B     		ldr	r3, .L12+36
 387 012a FFF7FEFF 		bl	__aeabi_uldivmod
 388 012e 031C     		mov	r3, r0
 389 0130 0C1C     		mov	r4, r1
 390 0132 DBB2     		uxtb	r3, r3
 391 0134 3033     		add	r3, r3, #48
 392 0136 DBB2     		uxtb	r3, r3
 393 0138 181C     		mov	r0, r3
 394 013a FFF7FEFF 		bl	LCD_PutChar
 100:.\main.c      ****     time_us %= 100000;
 395              		.loc 1 100 0
 396 013e 3B69     		ldr	r3, [r7, #16]
 397 0140 7C69     		ldr	r4, [r7, #20]
 398 0142 181C     		mov	r0, r3
 399 0144 211C     		mov	r1, r4
 400 0146 4E4A     		ldr	r2, .L12+32
 401 0148 4E4B     		ldr	r3, .L12+36
 402 014a FFF7FEFF 		bl	__aeabi_uldivmod
 403 014e 1C1C     		mov	r4, r3
ARM GAS  C:\Users\Snufkin\AppData\Local\Temp\ccCMbczD.s 			page 10


 404 0150 131C     		mov	r3, r2
 405 0152 3B61     		str	r3, [r7, #16]
 406 0154 7C61     		str	r4, [r7, #20]
 101:.\main.c      ****     LCD_PutChar(time_us/10000u + CONVERT_TO_ASCII);
 407              		.loc 1 101 0
 408 0156 3B69     		ldr	r3, [r7, #16]
 409 0158 7C69     		ldr	r4, [r7, #20]
 410 015a 181C     		mov	r0, r3
 411 015c 211C     		mov	r1, r4
 412 015e 4A4A     		ldr	r2, .L12+40
 413 0160 4A4B     		ldr	r3, .L12+44
 414 0162 FFF7FEFF 		bl	__aeabi_uldivmod
 415 0166 031C     		mov	r3, r0
 416 0168 0C1C     		mov	r4, r1
 417 016a DBB2     		uxtb	r3, r3
 418 016c 3033     		add	r3, r3, #48
 419 016e DBB2     		uxtb	r3, r3
 420 0170 181C     		mov	r0, r3
 421 0172 FFF7FEFF 		bl	LCD_PutChar
 102:.\main.c      ****     time_us %= 10000;
 422              		.loc 1 102 0
 423 0176 3B69     		ldr	r3, [r7, #16]
 424 0178 7C69     		ldr	r4, [r7, #20]
 425 017a 181C     		mov	r0, r3
 426 017c 211C     		mov	r1, r4
 427 017e 424A     		ldr	r2, .L12+40
 428 0180 424B     		ldr	r3, .L12+44
 429 0182 FFF7FEFF 		bl	__aeabi_uldivmod
 430 0186 1C1C     		mov	r4, r3
 431 0188 131C     		mov	r3, r2
 432 018a 3B61     		str	r3, [r7, #16]
 433 018c 7C61     		str	r4, [r7, #20]
 103:.\main.c      ****     LCD_PutChar(time_us/1000u + CONVERT_TO_ASCII);
 434              		.loc 1 103 0
 435 018e 3B69     		ldr	r3, [r7, #16]
 436 0190 7C69     		ldr	r4, [r7, #20]
 437 0192 181C     		mov	r0, r3
 438 0194 211C     		mov	r1, r4
 439 0196 3E4A     		ldr	r2, .L12+48
 440 0198 3E4B     		ldr	r3, .L12+52
 441 019a FFF7FEFF 		bl	__aeabi_uldivmod
 442 019e 031C     		mov	r3, r0
 443 01a0 0C1C     		mov	r4, r1
 444 01a2 DBB2     		uxtb	r3, r3
 445 01a4 3033     		add	r3, r3, #48
 446 01a6 DBB2     		uxtb	r3, r3
 447 01a8 181C     		mov	r0, r3
 448 01aa FFF7FEFF 		bl	LCD_PutChar
 104:.\main.c      ****     time_us %= 1000;
 449              		.loc 1 104 0
 450 01ae 3B69     		ldr	r3, [r7, #16]
 451 01b0 7C69     		ldr	r4, [r7, #20]
 452 01b2 181C     		mov	r0, r3
 453 01b4 211C     		mov	r1, r4
 454 01b6 364A     		ldr	r2, .L12+48
 455 01b8 364B     		ldr	r3, .L12+52
 456 01ba FFF7FEFF 		bl	__aeabi_uldivmod
ARM GAS  C:\Users\Snufkin\AppData\Local\Temp\ccCMbczD.s 			page 11


 457 01be 1C1C     		mov	r4, r3
 458 01c0 131C     		mov	r3, r2
 459 01c2 3B61     		str	r3, [r7, #16]
 460 01c4 7C61     		str	r4, [r7, #20]
 105:.\main.c      ****     LCD_PutChar(',');
 461              		.loc 1 105 0
 462 01c6 2C20     		mov	r0, #44
 463 01c8 FFF7FEFF 		bl	LCD_PutChar
 106:.\main.c      ****     LCD_PutChar(time_us/100u + CONVERT_TO_ASCII);
 464              		.loc 1 106 0
 465 01cc 3B69     		ldr	r3, [r7, #16]
 466 01ce 7C69     		ldr	r4, [r7, #20]
 467 01d0 181C     		mov	r0, r3
 468 01d2 211C     		mov	r1, r4
 469 01d4 6422     		mov	r2, #100
 470 01d6 0023     		mov	r3, #0
 471 01d8 FFF7FEFF 		bl	__aeabi_uldivmod
 472 01dc 031C     		mov	r3, r0
 473 01de 0C1C     		mov	r4, r1
 474 01e0 DBB2     		uxtb	r3, r3
 475 01e2 3033     		add	r3, r3, #48
 476 01e4 DBB2     		uxtb	r3, r3
 477 01e6 181C     		mov	r0, r3
 478 01e8 FFF7FEFF 		bl	LCD_PutChar
 107:.\main.c      ****     time_us %= 100;
 479              		.loc 1 107 0
 480 01ec 3B69     		ldr	r3, [r7, #16]
 481 01ee 7C69     		ldr	r4, [r7, #20]
 482 01f0 181C     		mov	r0, r3
 483 01f2 211C     		mov	r1, r4
 484 01f4 6422     		mov	r2, #100
 485 01f6 0023     		mov	r3, #0
 486 01f8 FFF7FEFF 		bl	__aeabi_uldivmod
 487 01fc 1C1C     		mov	r4, r3
 488 01fe 131C     		mov	r3, r2
 489 0200 3B61     		str	r3, [r7, #16]
 490 0202 7C61     		str	r4, [r7, #20]
 108:.\main.c      ****     LCD_PutChar(time_us/10u + CONVERT_TO_ASCII);
 491              		.loc 1 108 0
 492 0204 3B69     		ldr	r3, [r7, #16]
 493 0206 7C69     		ldr	r4, [r7, #20]
 494 0208 181C     		mov	r0, r3
 495 020a 211C     		mov	r1, r4
 496 020c 0A22     		mov	r2, #10
 497 020e 0023     		mov	r3, #0
 498 0210 FFF7FEFF 		bl	__aeabi_uldivmod
 499 0214 031C     		mov	r3, r0
 500 0216 0C1C     		mov	r4, r1
 501 0218 DBB2     		uxtb	r3, r3
 502 021a 3033     		add	r3, r3, #48
 503 021c DBB2     		uxtb	r3, r3
 504 021e 181C     		mov	r0, r3
 505 0220 FFF7FEFF 		bl	LCD_PutChar
 109:.\main.c      ****     time_us %= 10;
 506              		.loc 1 109 0
 507 0224 3B69     		ldr	r3, [r7, #16]
 508 0226 7C69     		ldr	r4, [r7, #20]
ARM GAS  C:\Users\Snufkin\AppData\Local\Temp\ccCMbczD.s 			page 12


 509 0228 181C     		mov	r0, r3
 510 022a 211C     		mov	r1, r4
 511 022c 0A22     		mov	r2, #10
 512 022e 0023     		mov	r3, #0
 513 0230 FFF7FEFF 		bl	__aeabi_uldivmod
 514 0234 1C1C     		mov	r4, r3
 515 0236 131C     		mov	r3, r2
 516 0238 3B61     		str	r3, [r7, #16]
 517 023a 7C61     		str	r4, [r7, #20]
 110:.\main.c      ****     LCD_PutChar(time_us + CONVERT_TO_ASCII);
 518              		.loc 1 110 0
 519 023c 3B69     		ldr	r3, [r7, #16]
 520 023e 7C69     		ldr	r4, [r7, #20]
 521 0240 DBB2     		uxtb	r3, r3
 522 0242 3033     		add	r3, r3, #48
 523 0244 DBB2     		uxtb	r3, r3
 524 0246 181C     		mov	r0, r3
 525 0248 FFF7FEFF 		bl	LCD_PutChar
 111:.\main.c      ****     LCD_PrintString("us");
 526              		.loc 1 111 0
 527 024c 144B     		ldr	r3, .L12+64
 528 024e 181C     		mov	r0, r3
 529 0250 FFF7FEFF 		bl	LCD_PrintString
 112:.\main.c      **** }...
 530              		.loc 1 112 0
 531 0254 BD46     		mov	sp, r7
 532 0256 07B0     		add	sp, sp, #28
 533              		@ sp needed
 534 0258 F0BD     		pop	{r4, r5, r6, r7, pc}
 535              	.L13:
 536 025a C046C046 		.align	3
 536      C046
 537              	.L12:
 538 0260 B80B0000 		.word	3000
 539 0264 00000000 		.word	0
 540 0268 00E1F505 		.word	100000000
 541 026c 00000000 		.word	0
 542 0270 80969800 		.word	10000000
 543 0274 00000000 		.word	0
 544 0278 40420F00 		.word	1000000
 545 027c 00000000 		.word	0
 546 0280 A0860100 		.word	100000
 547 0284 00000000 		.word	0
 548 0288 10270000 		.word	10000
 549 028c 00000000 		.word	0
 550 0290 E8030000 		.word	1000
 551 0294 00000000 		.word	0
 552 0298 1C000000 		.word	.LC9
 553 029c 30000000 		.word	.LC11
 554 02a0 34000000 		.word	.LC13
 555              		.cfi_endproc
 556              	.LFE35:
 557              		.size	print_measurement, .-print_measurement
 558 02a4 C046C046 		.text
 559              	.Letext0:
 560              		.file 2 ".\\Generated_Source\\PSoC4/cytypes.h"
 561              		.file 3 ".\\menus.h"
ARM GAS  C:\Users\Snufkin\AppData\Local\Temp\ccCMbczD.s 			page 13


 562              		.section	.debug_info,"",%progbits
 563              	.Ldebug_info0:
 564 0000 51010000 		.4byte	0x151
 565 0004 0400     		.2byte	0x4
 566 0006 00000000 		.4byte	.Ldebug_abbrev0
 567 000a 04       		.byte	0x4
 568 000b 01       		.uleb128 0x1
 569 000c 88000000 		.4byte	.LASF23
 570 0010 01       		.byte	0x1
 571 0011 B0010000 		.4byte	.LASF24
 572 0015 17010000 		.4byte	.LASF25
 573 0019 00000000 		.4byte	.Ldebug_ranges0+0
 574 001d 00000000 		.4byte	0
 575 0021 00000000 		.4byte	.Ldebug_line0
 576 0025 02       		.uleb128 0x2
 577 0026 01       		.byte	0x1
 578 0027 06       		.byte	0x6
 579 0028 99010000 		.4byte	.LASF0
 580 002c 02       		.uleb128 0x2
 581 002d 01       		.byte	0x1
 582 002e 08       		.byte	0x8
 583 002f 04010000 		.4byte	.LASF1
 584 0033 02       		.uleb128 0x2
 585 0034 02       		.byte	0x2
 586 0035 05       		.byte	0x5
 587 0036 66010000 		.4byte	.LASF2
 588 003a 02       		.uleb128 0x2
 589 003b 02       		.byte	0x2
 590 003c 07       		.byte	0x7
 591 003d 86010000 		.4byte	.LASF3
 592 0041 02       		.uleb128 0x2
 593 0042 04       		.byte	0x4
 594 0043 05       		.byte	0x5
 595 0044 5D010000 		.4byte	.LASF4
 596 0048 02       		.uleb128 0x2
 597 0049 04       		.byte	0x4
 598 004a 07       		.byte	0x7
 599 004b 48000000 		.4byte	.LASF5
 600 004f 02       		.uleb128 0x2
 601 0050 08       		.byte	0x8
 602 0051 05       		.byte	0x5
 603 0052 00000000 		.4byte	.LASF6
 604 0056 02       		.uleb128 0x2
 605 0057 08       		.byte	0x8
 606 0058 07       		.byte	0x7
 607 0059 5A000000 		.4byte	.LASF7
 608 005d 03       		.uleb128 0x3
 609 005e 04       		.byte	0x4
 610 005f 05       		.byte	0x5
 611 0060 696E7400 		.ascii	"int\000"
 612 0064 02       		.uleb128 0x2
 613 0065 04       		.byte	0x4
 614 0066 07       		.byte	0x7
 615 0067 16000000 		.4byte	.LASF8
 616 006b 04       		.uleb128 0x4
 617 006c 42000000 		.4byte	.LASF9
 618 0070 02       		.byte	0x2
ARM GAS  C:\Users\Snufkin\AppData\Local\Temp\ccCMbczD.s 			page 14


 619 0071 A1       		.byte	0xa1
 620 0072 2C000000 		.4byte	0x2c
 621 0076 04       		.uleb128 0x4
 622 0077 B9010000 		.4byte	.LASF10
 623 007b 02       		.byte	0x2
 624 007c A2       		.byte	0xa2
 625 007d 3A000000 		.4byte	0x3a
 626 0081 04       		.uleb128 0x4
 627 0082 35000000 		.4byte	.LASF11
 628 0086 02       		.byte	0x2
 629 0087 A3       		.byte	0xa3
 630 0088 48000000 		.4byte	0x48
 631 008c 02       		.uleb128 0x2
 632 008d 04       		.byte	0x4
 633 008e 04       		.byte	0x4
 634 008f AA010000 		.4byte	.LASF12
 635 0093 02       		.uleb128 0x2
 636 0094 08       		.byte	0x8
 637 0095 04       		.byte	0x4
 638 0096 70010000 		.4byte	.LASF13
 639 009a 04       		.uleb128 0x4
 640 009b 76000000 		.4byte	.LASF14
 641 009f 02       		.byte	0x2
 642 00a0 AD       		.byte	0xad
 643 00a1 56000000 		.4byte	0x56
 644 00a5 02       		.uleb128 0x2
 645 00a6 01       		.byte	0x1
 646 00a7 08       		.byte	0x8
 647 00a8 12010000 		.4byte	.LASF15
 648 00ac 05       		.uleb128 0x5
 649 00ad 6B000000 		.4byte	0x6b
 650 00b1 02       		.uleb128 0x2
 651 00b2 04       		.byte	0x4
 652 00b3 07       		.byte	0x7
 653 00b4 C0010000 		.4byte	.LASF16
 654 00b8 06       		.uleb128 0x6
 655 00b9 7D000000 		.4byte	.LASF17
 656 00bd 01       		.byte	0x1
 657 00be 1C       		.byte	0x1c
 658 00bf 00000000 		.4byte	.LFB33
 659 00c3 38000000 		.4byte	.LFE33-.LFB33
 660 00c7 01       		.uleb128 0x1
 661 00c8 9C       		.byte	0x9c
 662 00c9 07       		.uleb128 0x7
 663 00ca A5010000 		.4byte	.LASF18
 664 00ce 01       		.byte	0x1
 665 00cf 28       		.byte	0x28
 666 00d0 5D000000 		.4byte	0x5d
 667 00d4 00000000 		.4byte	.LFB34
 668 00d8 D4000000 		.4byte	.LFE34-.LFB34
 669 00dc 01       		.uleb128 0x1
 670 00dd 9C       		.byte	0x9c
 671 00de 08       		.uleb128 0x8
 672 00df 23000000 		.4byte	.LASF26
 673 00e3 01       		.byte	0x1
 674 00e4 56       		.byte	0x56
 675 00e5 00000000 		.4byte	.LFB35
ARM GAS  C:\Users\Snufkin\AppData\Local\Temp\ccCMbczD.s 			page 15


 676 00e9 A4020000 		.4byte	.LFE35-.LFB35
 677 00ed 01       		.uleb128 0x1
 678 00ee 9C       		.byte	0x9c
 679 00ef 10010000 		.4byte	0x110
 680 00f3 09       		.uleb128 0x9
 681 00f4 71000000 		.4byte	.LASF22
 682 00f8 01       		.byte	0x1
 683 00f9 56       		.byte	0x56
 684 00fa 81000000 		.4byte	0x81
 685 00fe 02       		.uleb128 0x2
 686 00ff 91       		.byte	0x91
 687 0100 5C       		.sleb128 -36
 688 0101 0A       		.uleb128 0xa
 689 0102 0E000000 		.4byte	.LASF27
 690 0106 01       		.byte	0x1
 691 0107 57       		.byte	0x57
 692 0108 9A000000 		.4byte	0x9a
 693 010c 02       		.uleb128 0x2
 694 010d 91       		.byte	0x91
 695 010e 60       		.sleb128 -32
 696 010f 00       		.byte	0
 697 0110 0B       		.uleb128 0xb
 698 0111 77010000 		.4byte	.LASF19
 699 0115 03       		.byte	0x3
 700 0116 13       		.byte	0x13
 701 0117 76000000 		.4byte	0x76
 702 011b 05       		.uleb128 0x5
 703 011c 03       		.byte	0x3
 704 011d 00000000 		.4byte	target
 705 0121 0B       		.uleb128 0xb
 706 0122 7E010000 		.4byte	.LASF20
 707 0126 01       		.byte	0x1
 708 0127 13       		.byte	0x13
 709 0128 AC000000 		.4byte	0xac
 710 012c 05       		.uleb128 0x5
 711 012d 03       		.byte	0x3
 712 012e 00000000 		.4byte	running
 713 0132 0B       		.uleb128 0xb
 714 0133 3C000000 		.4byte	.LASF21
 715 0137 01       		.byte	0x1
 716 0138 14       		.byte	0x14
 717 0139 76000000 		.4byte	0x76
 718 013d 05       		.uleb128 0x5
 719 013e 03       		.byte	0x3
 720 013f 00000000 		.4byte	V_new
 721 0143 0B       		.uleb128 0xb
 722 0144 71000000 		.4byte	.LASF22
 723 0148 01       		.byte	0x1
 724 0149 15       		.byte	0x15
 725 014a 81000000 		.4byte	0x81
 726 014e 05       		.uleb128 0x5
 727 014f 03       		.byte	0x3
 728 0150 00000000 		.4byte	time
 729 0154 00       		.byte	0
 730              		.section	.debug_abbrev,"",%progbits
 731              	.Ldebug_abbrev0:
 732 0000 01       		.uleb128 0x1
ARM GAS  C:\Users\Snufkin\AppData\Local\Temp\ccCMbczD.s 			page 16


 733 0001 11       		.uleb128 0x11
 734 0002 01       		.byte	0x1
 735 0003 25       		.uleb128 0x25
 736 0004 0E       		.uleb128 0xe
 737 0005 13       		.uleb128 0x13
 738 0006 0B       		.uleb128 0xb
 739 0007 03       		.uleb128 0x3
 740 0008 0E       		.uleb128 0xe
 741 0009 1B       		.uleb128 0x1b
 742 000a 0E       		.uleb128 0xe
 743 000b 55       		.uleb128 0x55
 744 000c 17       		.uleb128 0x17
 745 000d 11       		.uleb128 0x11
 746 000e 01       		.uleb128 0x1
 747 000f 10       		.uleb128 0x10
 748 0010 17       		.uleb128 0x17
 749 0011 00       		.byte	0
 750 0012 00       		.byte	0
 751 0013 02       		.uleb128 0x2
 752 0014 24       		.uleb128 0x24
 753 0015 00       		.byte	0
 754 0016 0B       		.uleb128 0xb
 755 0017 0B       		.uleb128 0xb
 756 0018 3E       		.uleb128 0x3e
 757 0019 0B       		.uleb128 0xb
 758 001a 03       		.uleb128 0x3
 759 001b 0E       		.uleb128 0xe
 760 001c 00       		.byte	0
 761 001d 00       		.byte	0
 762 001e 03       		.uleb128 0x3
 763 001f 24       		.uleb128 0x24
 764 0020 00       		.byte	0
 765 0021 0B       		.uleb128 0xb
 766 0022 0B       		.uleb128 0xb
 767 0023 3E       		.uleb128 0x3e
 768 0024 0B       		.uleb128 0xb
 769 0025 03       		.uleb128 0x3
 770 0026 08       		.uleb128 0x8
 771 0027 00       		.byte	0
 772 0028 00       		.byte	0
 773 0029 04       		.uleb128 0x4
 774 002a 16       		.uleb128 0x16
 775 002b 00       		.byte	0
 776 002c 03       		.uleb128 0x3
 777 002d 0E       		.uleb128 0xe
 778 002e 3A       		.uleb128 0x3a
 779 002f 0B       		.uleb128 0xb
 780 0030 3B       		.uleb128 0x3b
 781 0031 0B       		.uleb128 0xb
 782 0032 49       		.uleb128 0x49
 783 0033 13       		.uleb128 0x13
 784 0034 00       		.byte	0
 785 0035 00       		.byte	0
 786 0036 05       		.uleb128 0x5
 787 0037 35       		.uleb128 0x35
 788 0038 00       		.byte	0
 789 0039 49       		.uleb128 0x49
ARM GAS  C:\Users\Snufkin\AppData\Local\Temp\ccCMbczD.s 			page 17


 790 003a 13       		.uleb128 0x13
 791 003b 00       		.byte	0
 792 003c 00       		.byte	0
 793 003d 06       		.uleb128 0x6
 794 003e 2E       		.uleb128 0x2e
 795 003f 00       		.byte	0
 796 0040 3F       		.uleb128 0x3f
 797 0041 19       		.uleb128 0x19
 798 0042 03       		.uleb128 0x3
 799 0043 0E       		.uleb128 0xe
 800 0044 3A       		.uleb128 0x3a
 801 0045 0B       		.uleb128 0xb
 802 0046 3B       		.uleb128 0x3b
 803 0047 0B       		.uleb128 0xb
 804 0048 27       		.uleb128 0x27
 805 0049 19       		.uleb128 0x19
 806 004a 11       		.uleb128 0x11
 807 004b 01       		.uleb128 0x1
 808 004c 12       		.uleb128 0x12
 809 004d 06       		.uleb128 0x6
 810 004e 40       		.uleb128 0x40
 811 004f 18       		.uleb128 0x18
 812 0050 9642     		.uleb128 0x2116
 813 0052 19       		.uleb128 0x19
 814 0053 00       		.byte	0
 815 0054 00       		.byte	0
 816 0055 07       		.uleb128 0x7
 817 0056 2E       		.uleb128 0x2e
 818 0057 00       		.byte	0
 819 0058 3F       		.uleb128 0x3f
 820 0059 19       		.uleb128 0x19
 821 005a 03       		.uleb128 0x3
 822 005b 0E       		.uleb128 0xe
 823 005c 3A       		.uleb128 0x3a
 824 005d 0B       		.uleb128 0xb
 825 005e 3B       		.uleb128 0x3b
 826 005f 0B       		.uleb128 0xb
 827 0060 49       		.uleb128 0x49
 828 0061 13       		.uleb128 0x13
 829 0062 11       		.uleb128 0x11
 830 0063 01       		.uleb128 0x1
 831 0064 12       		.uleb128 0x12
 832 0065 06       		.uleb128 0x6
 833 0066 40       		.uleb128 0x40
 834 0067 18       		.uleb128 0x18
 835 0068 9642     		.uleb128 0x2116
 836 006a 19       		.uleb128 0x19
 837 006b 00       		.byte	0
 838 006c 00       		.byte	0
 839 006d 08       		.uleb128 0x8
 840 006e 2E       		.uleb128 0x2e
 841 006f 01       		.byte	0x1
 842 0070 3F       		.uleb128 0x3f
 843 0071 19       		.uleb128 0x19
 844 0072 03       		.uleb128 0x3
 845 0073 0E       		.uleb128 0xe
 846 0074 3A       		.uleb128 0x3a
ARM GAS  C:\Users\Snufkin\AppData\Local\Temp\ccCMbczD.s 			page 18


 847 0075 0B       		.uleb128 0xb
 848 0076 3B       		.uleb128 0x3b
 849 0077 0B       		.uleb128 0xb
 850 0078 27       		.uleb128 0x27
 851 0079 19       		.uleb128 0x19
 852 007a 11       		.uleb128 0x11
 853 007b 01       		.uleb128 0x1
 854 007c 12       		.uleb128 0x12
 855 007d 06       		.uleb128 0x6
 856 007e 40       		.uleb128 0x40
 857 007f 18       		.uleb128 0x18
 858 0080 9642     		.uleb128 0x2116
 859 0082 19       		.uleb128 0x19
 860 0083 01       		.uleb128 0x1
 861 0084 13       		.uleb128 0x13
 862 0085 00       		.byte	0
 863 0086 00       		.byte	0
 864 0087 09       		.uleb128 0x9
 865 0088 05       		.uleb128 0x5
 866 0089 00       		.byte	0
 867 008a 03       		.uleb128 0x3
 868 008b 0E       		.uleb128 0xe
 869 008c 3A       		.uleb128 0x3a
 870 008d 0B       		.uleb128 0xb
 871 008e 3B       		.uleb128 0x3b
 872 008f 0B       		.uleb128 0xb
 873 0090 49       		.uleb128 0x49
 874 0091 13       		.uleb128 0x13
 875 0092 02       		.uleb128 0x2
 876 0093 18       		.uleb128 0x18
 877 0094 00       		.byte	0
 878 0095 00       		.byte	0
 879 0096 0A       		.uleb128 0xa
 880 0097 34       		.uleb128 0x34
 881 0098 00       		.byte	0
 882 0099 03       		.uleb128 0x3
 883 009a 0E       		.uleb128 0xe
 884 009b 3A       		.uleb128 0x3a
 885 009c 0B       		.uleb128 0xb
 886 009d 3B       		.uleb128 0x3b
 887 009e 0B       		.uleb128 0xb
 888 009f 49       		.uleb128 0x49
 889 00a0 13       		.uleb128 0x13
 890 00a1 02       		.uleb128 0x2
 891 00a2 18       		.uleb128 0x18
 892 00a3 00       		.byte	0
 893 00a4 00       		.byte	0
 894 00a5 0B       		.uleb128 0xb
 895 00a6 34       		.uleb128 0x34
 896 00a7 00       		.byte	0
 897 00a8 03       		.uleb128 0x3
 898 00a9 0E       		.uleb128 0xe
 899 00aa 3A       		.uleb128 0x3a
 900 00ab 0B       		.uleb128 0xb
 901 00ac 3B       		.uleb128 0x3b
 902 00ad 0B       		.uleb128 0xb
 903 00ae 49       		.uleb128 0x49
ARM GAS  C:\Users\Snufkin\AppData\Local\Temp\ccCMbczD.s 			page 19


 904 00af 13       		.uleb128 0x13
 905 00b0 3F       		.uleb128 0x3f
 906 00b1 19       		.uleb128 0x19
 907 00b2 02       		.uleb128 0x2
 908 00b3 18       		.uleb128 0x18
 909 00b4 00       		.byte	0
 910 00b5 00       		.byte	0
 911 00b6 00       		.byte	0
 912              		.section	.debug_aranges,"",%progbits
 913 0000 2C000000 		.4byte	0x2c
 914 0004 0200     		.2byte	0x2
 915 0006 00000000 		.4byte	.Ldebug_info0
 916 000a 04       		.byte	0x4
 917 000b 00       		.byte	0
 918 000c 0000     		.2byte	0
 919 000e 0000     		.2byte	0
 920 0010 00000000 		.4byte	.LFB33
 921 0014 38000000 		.4byte	.LFE33-.LFB33
 922 0018 00000000 		.4byte	.LFB34
 923 001c D4000000 		.4byte	.LFE34-.LFB34
 924 0020 00000000 		.4byte	.LFB35
 925 0024 A4020000 		.4byte	.LFE35-.LFB35
 926 0028 00000000 		.4byte	0
 927 002c 00000000 		.4byte	0
 928              		.section	.debug_ranges,"",%progbits
 929              	.Ldebug_ranges0:
 930 0000 00000000 		.4byte	.LFB33
 931 0004 38000000 		.4byte	.LFE33
 932 0008 00000000 		.4byte	.LFB34
 933 000c D4000000 		.4byte	.LFE34
 934 0010 00000000 		.4byte	.LFB35
 935 0014 A4020000 		.4byte	.LFE35
 936 0018 00000000 		.4byte	0
 937 001c 00000000 		.4byte	0
 938              		.section	.debug_line,"",%progbits
 939              	.Ldebug_line0:
 940 0000 C8000000 		.section	.debug_str,"MS",%progbits,1
 940      02005200 
 940      00000201 
 940      FB0E0D00 
 940      01010101 
 941              	.LASF6:
 942 0000 6C6F6E67 		.ascii	"long long int\000"
 942      206C6F6E 
 942      6720696E 
 942      7400
 943              	.LASF27:
 944 000e 74696D65 		.ascii	"time_us\000"
 944      5F757300 
 945              	.LASF8:
 946 0016 756E7369 		.ascii	"unsigned int\000"
 946      676E6564 
 946      20696E74 
 946      00
 947              	.LASF26:
 948 0023 7072696E 		.ascii	"print_measurement\000"
 948      745F6D65 
ARM GAS  C:\Users\Snufkin\AppData\Local\Temp\ccCMbczD.s 			page 20


 948      61737572 
 948      656D656E 
 948      7400
 949              	.LASF11:
 950 0035 75696E74 		.ascii	"uint32\000"
 950      333200
 951              	.LASF21:
 952 003c 565F6E65 		.ascii	"V_new\000"
 952      7700
 953              	.LASF9:
 954 0042 75696E74 		.ascii	"uint8\000"
 954      3800
 955              	.LASF5:
 956 0048 6C6F6E67 		.ascii	"long unsigned int\000"
 956      20756E73 
 956      69676E65 
 956      6420696E 
 956      7400
 957              	.LASF7:
 958 005a 6C6F6E67 		.ascii	"long long unsigned int\000"
 958      206C6F6E 
 958      6720756E 
 958      7369676E 
 958      65642069 
 959              	.LASF22:
 960 0071 74696D65 		.ascii	"time\000"
 960      00
 961              	.LASF14:
 962 0076 75696E74 		.ascii	"uint64\000"
 962      363400
 963              	.LASF17:
 964 007d 73775F69 		.ascii	"sw_int_ISR\000"
 964      6E745F49 
 964      535200
 965              	.LASF23:
 966 0088 474E5520 		.ascii	"GNU C 4.8.4 20140526 (release) [ARM/embedded-4_8-br"
 966      4320342E 
 966      382E3420 
 966      32303134 
 966      30353236 
 967 00bb 616E6368 		.ascii	"anch revision 211358] -mcpu=cortex-m0 -mthumb -g -O"
 967      20726576 
 967      6973696F 
 967      6E203231 
 967      31333538 
 968 00ee 30202D66 		.ascii	"0 -ffunction-sections\000"
 968      66756E63 
 968      74696F6E 
 968      2D736563 
 968      74696F6E 
 969              	.LASF1:
 970 0104 756E7369 		.ascii	"unsigned char\000"
 970      676E6564 
 970      20636861 
 970      7200
 971              	.LASF15:
 972 0112 63686172 		.ascii	"char\000"
ARM GAS  C:\Users\Snufkin\AppData\Local\Temp\ccCMbczD.s 			page 21


 972      00
 973              	.LASF25:
 974 0117 433A5C55 		.ascii	"C:\\Users\\Snufkin\\Documents\\GitHub\\KingFunk2\\C"
 974      73657273 
 974      5C536E75 
 974      666B696E 
 974      5C446F63 
 975 0144 52545F74 		.ascii	"RT_timer\\CRT_timer.cydsn\000"
 975      696D6572 
 975      5C435254 
 975      5F74696D 
 975      65722E63 
 976              	.LASF4:
 977 015d 6C6F6E67 		.ascii	"long int\000"
 977      20696E74 
 977      00
 978              	.LASF2:
 979 0166 73686F72 		.ascii	"short int\000"
 979      7420696E 
 979      7400
 980              	.LASF13:
 981 0170 646F7562 		.ascii	"double\000"
 981      6C6500
 982              	.LASF19:
 983 0177 74617267 		.ascii	"target\000"
 983      657400
 984              	.LASF20:
 985 017e 72756E6E 		.ascii	"running\000"
 985      696E6700 
 986              	.LASF3:
 987 0186 73686F72 		.ascii	"short unsigned int\000"
 987      7420756E 
 987      7369676E 
 987      65642069 
 987      6E7400
 988              	.LASF0:
 989 0199 7369676E 		.ascii	"signed char\000"
 989      65642063 
 989      68617200 
 990              	.LASF18:
 991 01a5 6D61696E 		.ascii	"main\000"
 991      00
 992              	.LASF12:
 993 01aa 666C6F61 		.ascii	"float\000"
 993      7400
 994              	.LASF24:
 995 01b0 2E5C6D61 		.ascii	".\\main.c\000"
 995      696E2E63 
 995      00
 996              	.LASF10:
 997 01b9 75696E74 		.ascii	"uint16\000"
 997      313600
 998              	.LASF16:
 999 01c0 73697A65 		.ascii	"sizetype\000"
 999      74797065 
 999      00
 1000              		.ident	"GCC: (GNU Tools for ARM Embedded Processors) 4.8.4 20140526 (release) [ARM/embedded-4_8-br
ARM GAS  C:\Users\Snufkin\AppData\Local\Temp\ccCMbczD.s 			page 22


