ARM GAS  C:\Users\Snufkin\AppData\Local\Temp\ccdHed5r.s 			page 1


   1              		.cpu cortex-m0
   2              		.fpu softvfp
   3              		.eabi_attribute 20, 1
   4              		.eabi_attribute 21, 1
   5              		.eabi_attribute 23, 3
   6              		.eabi_attribute 24, 1
   7              		.eabi_attribute 25, 1
   8              		.eabi_attribute 26, 1
   9              		.eabi_attribute 30, 6
  10              		.eabi_attribute 34, 0
  11              		.eabi_attribute 18, 4
  12              		.code	16
  13              		.file	"menus.c"
  14              		.text
  15              	.Ltext0:
  16              		.cfi_sections	.debug_frame
  17              		.comm	target,2,2
  18              		.global	lightMax
  19              		.bss
  20              		.align	1
  21              		.type	lightMax, %object
  22              		.size	lightMax, 2
  23              	lightMax:
  24 0000 0000     		.space	2
  25              		.data
  26              		.type	currentMenu, %object
  27              		.size	currentMenu, 1
  28              	currentMenu:
  29 0000 03       		.byte	3
  30              		.type	oldMenu, %object
  31              		.size	oldMenu, 1
  32              	oldMenu:
  33 0001 03       		.byte	3
  34              		.section	.text.updateMenu,"ax",%progbits
  35              		.align	2
  36              		.global	updateMenu
  37              		.code	16
  38              		.thumb_func
  39              		.type	updateMenu, %function
  40              	updateMenu:
  41              	.LFB33:
  42              		.file 1 ".\\menus.c"
   1:.\menus.c     **** /* ========================================
   2:.\menus.c     ****  *
   3:.\menus.c     ****  * Copyright YOUR COMPANY, THE YEAR
   4:.\menus.c     ****  * All Rights Reserved
   5:.\menus.c     ****  * UNPUBLISHED, LICENSED SOFTWARE.
   6:.\menus.c     ****  *
   7:.\menus.c     ****  * CONFIDENTIAL AND PROPRIETARY INFORMATION
   8:.\menus.c     ****  * WHICH IS THE PROPERTY OF your company.
   9:.\menus.c     ****  *
  10:.\menus.c     ****  * ========================================
  11:.\menus.c     **** */
  12:.\menus.c     **** 
  13:.\menus.c     **** /* [] END OF FILE */
  14:.\menus.c     **** 
  15:.\menus.c     **** #include <project.h>
ARM GAS  C:\Users\Snufkin\AppData\Local\Temp\ccdHed5r.s 			page 2


  16:.\menus.c     **** #include "menus.h"
  17:.\menus.c     **** #include "keypad.h"
  18:.\menus.c     **** 
  19:.\menus.c     **** uint16 lightMax = 0;
  20:.\menus.c     **** static gui currentMenu = INITIAL;
  21:.\menus.c     **** static gui oldMenu = INITIAL;
  22:.\menus.c     **** 
  23:.\menus.c     **** void clearLine(uint8 row);
  24:.\menus.c     **** void drawMenu(gui);
  25:.\menus.c     **** 
  26:.\menus.c     **** int8 updateMenu(){
  43              		.loc 1 26 0
  44              		.cfi_startproc
  45 0000 90B5     		push	{r4, r7, lr}
  46              		.cfi_def_cfa_offset 12
  47              		.cfi_offset 4, -12
  48              		.cfi_offset 7, -8
  49              		.cfi_offset 14, -4
  50 0002 83B0     		sub	sp, sp, #12
  51              		.cfi_def_cfa_offset 24
  52 0004 00AF     		add	r7, sp, #0
  53              		.cfi_def_cfa_register 7
  27:.\menus.c     ****     BTN_states press = getButton();
  54              		.loc 1 27 0
  55 0006 FC1D     		add	r4, r7, #7
  56 0008 FFF7FEFF 		bl	getButton
  57 000c 031C     		mov	r3, r0
  58 000e 2370     		strb	r3, [r4]
  28:.\menus.c     ****     if (currentMenu == MAIN){
  59              		.loc 1 28 0
  60 0010 344B     		ldr	r3, .L15
  61 0012 1B78     		ldrb	r3, [r3]
  62 0014 002B     		cmp	r3, #0
  63 0016 0FD1     		bne	.L2
  29:.\menus.c     ****         if (press == DOWN){
  64              		.loc 1 29 0
  65 0018 FB1D     		add	r3, r7, #7
  66 001a 1B78     		ldrb	r3, [r3]
  67 001c 032B     		cmp	r3, #3
  68 001e 03D1     		bne	.L3
  30:.\menus.c     ****             currentMenu = CALIBRATION;
  69              		.loc 1 30 0
  70 0020 304B     		ldr	r3, .L15
  71 0022 0122     		mov	r2, #1
  72 0024 1A70     		strb	r2, [r3]
  73 0026 52E0     		b	.L5
  74              	.L3:
  31:.\menus.c     ****         }
  32:.\menus.c     ****         else if(press == UP){
  75              		.loc 1 32 0
  76 0028 FB1D     		add	r3, r7, #7
  77 002a 1B78     		ldrb	r3, [r3]
  78 002c 042B     		cmp	r3, #4
  79 002e 4ED1     		bne	.L5
  33:.\menus.c     ****             currentMenu = RESULTS;
  80              		.loc 1 33 0
  81 0030 2C4B     		ldr	r3, .L15
ARM GAS  C:\Users\Snufkin\AppData\Local\Temp\ccdHed5r.s 			page 3


  82 0032 0222     		mov	r2, #2
  83 0034 1A70     		strb	r2, [r3]
  84 0036 4AE0     		b	.L5
  85              	.L2:
  34:.\menus.c     ****         }
  35:.\menus.c     ****     }
  36:.\menus.c     ****     else if(currentMenu == CALIBRATION){
  86              		.loc 1 36 0
  87 0038 2A4B     		ldr	r3, .L15
  88 003a 1B78     		ldrb	r3, [r3]
  89 003c 012B     		cmp	r3, #1
  90 003e 2BD1     		bne	.L6
  37:.\menus.c     ****         if (press == DOWN){
  91              		.loc 1 37 0
  92 0040 FB1D     		add	r3, r7, #7
  93 0042 1B78     		ldrb	r3, [r3]
  94 0044 032B     		cmp	r3, #3
  95 0046 03D1     		bne	.L7
  38:.\menus.c     ****             currentMenu = RESULTS;
  96              		.loc 1 38 0
  97 0048 264B     		ldr	r3, .L15
  98 004a 0222     		mov	r2, #2
  99 004c 1A70     		strb	r2, [r3]
 100 004e 3EE0     		b	.L5
 101              	.L7:
  39:.\menus.c     ****         }
  40:.\menus.c     ****         else if(press == UP){
 102              		.loc 1 40 0
 103 0050 FB1D     		add	r3, r7, #7
 104 0052 1B78     		ldrb	r3, [r3]
 105 0054 042B     		cmp	r3, #4
 106 0056 03D1     		bne	.L9
  41:.\menus.c     ****             currentMenu = MAIN;
 107              		.loc 1 41 0
 108 0058 224B     		ldr	r3, .L15
 109 005a 0022     		mov	r2, #0
 110 005c 1A70     		strb	r2, [r3]
 111 005e 36E0     		b	.L5
 112              	.L9:
  42:.\menus.c     ****         }
  43:.\menus.c     ****         else if(press == RIGHT){
 113              		.loc 1 43 0
 114 0060 FB1D     		add	r3, r7, #7
 115 0062 1B78     		ldrb	r3, [r3]
 116 0064 052B     		cmp	r3, #5
 117 0066 09D1     		bne	.L10
  44:.\menus.c     ****             target++;
 118              		.loc 1 44 0
 119 0068 1F4B     		ldr	r3, .L15+4
 120 006a 1B88     		ldrh	r3, [r3]
 121 006c 0133     		add	r3, r3, #1
 122 006e 9AB2     		uxth	r2, r3
 123 0070 1D4B     		ldr	r3, .L15+4
 124 0072 1A80     		strh	r2, [r3]
  45:.\menus.c     ****             oldMenu = INITIAL;
 125              		.loc 1 45 0
 126 0074 1D4B     		ldr	r3, .L15+8
ARM GAS  C:\Users\Snufkin\AppData\Local\Temp\ccdHed5r.s 			page 4


 127 0076 0322     		mov	r2, #3
 128 0078 1A70     		strb	r2, [r3]
 129 007a 28E0     		b	.L5
 130              	.L10:
  46:.\menus.c     ****         }
  47:.\menus.c     ****         else if(press == LEFT){
 131              		.loc 1 47 0
 132 007c FB1D     		add	r3, r7, #7
 133 007e 1B78     		ldrb	r3, [r3]
 134 0080 022B     		cmp	r3, #2
 135 0082 24D1     		bne	.L5
  48:.\menus.c     ****             target--;
 136              		.loc 1 48 0
 137 0084 184B     		ldr	r3, .L15+4
 138 0086 1B88     		ldrh	r3, [r3]
 139 0088 013B     		sub	r3, r3, #1
 140 008a 9AB2     		uxth	r2, r3
 141 008c 164B     		ldr	r3, .L15+4
 142 008e 1A80     		strh	r2, [r3]
  49:.\menus.c     ****             oldMenu = INITIAL;
 143              		.loc 1 49 0
 144 0090 164B     		ldr	r3, .L15+8
 145 0092 0322     		mov	r2, #3
 146 0094 1A70     		strb	r2, [r3]
 147 0096 1AE0     		b	.L5
 148              	.L6:
  50:.\menus.c     ****         }
  51:.\menus.c     ****     }
  52:.\menus.c     ****     else if(currentMenu == RESULTS){
 149              		.loc 1 52 0
 150 0098 124B     		ldr	r3, .L15
 151 009a 1B78     		ldrb	r3, [r3]
 152 009c 022B     		cmp	r3, #2
 153 009e 0FD1     		bne	.L11
  53:.\menus.c     ****         if (press == DOWN){
 154              		.loc 1 53 0
 155 00a0 FB1D     		add	r3, r7, #7
 156 00a2 1B78     		ldrb	r3, [r3]
 157 00a4 032B     		cmp	r3, #3
 158 00a6 03D1     		bne	.L12
  54:.\menus.c     ****             currentMenu = MAIN;
 159              		.loc 1 54 0
 160 00a8 0E4B     		ldr	r3, .L15
 161 00aa 0022     		mov	r2, #0
 162 00ac 1A70     		strb	r2, [r3]
 163 00ae 0EE0     		b	.L5
 164              	.L12:
  55:.\menus.c     ****         }
  56:.\menus.c     ****         else if(press == UP){
 165              		.loc 1 56 0
 166 00b0 FB1D     		add	r3, r7, #7
 167 00b2 1B78     		ldrb	r3, [r3]
 168 00b4 042B     		cmp	r3, #4
 169 00b6 0AD1     		bne	.L5
  57:.\menus.c     ****             currentMenu = CALIBRATION;
 170              		.loc 1 57 0
 171 00b8 0A4B     		ldr	r3, .L15
ARM GAS  C:\Users\Snufkin\AppData\Local\Temp\ccdHed5r.s 			page 5


 172 00ba 0122     		mov	r2, #1
 173 00bc 1A70     		strb	r2, [r3]
 174 00be 06E0     		b	.L5
 175              	.L11:
  58:.\menus.c     ****         }
  59:.\menus.c     ****     }
  60:.\menus.c     ****     else if(currentMenu == INITIAL){
 176              		.loc 1 60 0
 177 00c0 084B     		ldr	r3, .L15
 178 00c2 1B78     		ldrb	r3, [r3]
 179 00c4 032B     		cmp	r3, #3
 180 00c6 02D1     		bne	.L5
  61:.\menus.c     ****         currentMenu = MAIN;
 181              		.loc 1 61 0
 182 00c8 064B     		ldr	r3, .L15
 183 00ca 0022     		mov	r2, #0
 184 00cc 1A70     		strb	r2, [r3]
 185              	.L5:
  62:.\menus.c     ****     }
  63:.\menus.c     ****     
  64:.\menus.c     ****     drawMenu(currentMenu);
 186              		.loc 1 64 0
 187 00ce 054B     		ldr	r3, .L15
 188 00d0 1B78     		ldrb	r3, [r3]
 189 00d2 181C     		mov	r0, r3
 190 00d4 FFF7FEFF 		bl	drawMenu
  65:.\menus.c     ****     return 0;
 191              		.loc 1 65 0
 192 00d8 0023     		mov	r3, #0
 193 00da 5BB2     		sxtb	r3, r3
  66:.\menus.c     **** }
 194              		.loc 1 66 0
 195 00dc 181C     		mov	r0, r3
 196 00de BD46     		mov	sp, r7
 197 00e0 03B0     		add	sp, sp, #12
 198              		@ sp needed
 199 00e2 90BD     		pop	{r4, r7, pc}
 200              	.L16:
 201              		.align	2
 202              	.L15:
 203 00e4 00000000 		.word	currentMenu
 204 00e8 00000000 		.word	target
 205 00ec 01000000 		.word	oldMenu
 206              		.cfi_endproc
 207              	.LFE33:
 208              		.size	updateMenu, .-updateMenu
 209              		.section	.rodata
 210              		.align	2
 211              	.LC4:
 212 0000 20202020 		.ascii	"    <MAIN>     \000"
 212      3C4D4149 
 212      4E3E2020 
 212      20202000 
 213              		.align	2
 214              	.LC7:
 215 0010 4D61783A 		.ascii	"Max: \000"
 215      2000
ARM GAS  C:\Users\Snufkin\AppData\Local\Temp\ccdHed5r.s 			page 6


 216 0016 0000     		.align	2
 217              	.LC9:
 218 0018 203C4341 		.ascii	" <CALIBRATION>  \000"
 218      4C494252 
 218      4154494F 
 218      4E3E2020 
 218      00
 219 0029 000000   		.align	2
 220              	.LC11:
 221 002c 74617267 		.ascii	"target: \000"
 221      65743A20 
 221      00
 222 0035 000000   		.align	2
 223              	.LC14:
 224 0038 2020203C 		.ascii	"   <RESULTS>    \000"
 224      52455355 
 224      4C54533E 
 224      20202020 
 224      00
 225 0049 000000   		.align	2
 226              	.LC16:
 227 004c 6C617374 		.ascii	"last timing: \000"
 227      2074696D 
 227      696E673A 
 227      2000
 228              		.section	.text.drawMenu,"ax",%progbits
 229              		.align	2
 230              		.global	drawMenu
 231              		.code	16
 232              		.thumb_func
 233              		.type	drawMenu, %function
 234              	drawMenu:
 235              	.LFB34:
  67:.\menus.c     **** 
  68:.\menus.c     **** void drawMenu(gui menu){
 236              		.loc 1 68 0
 237              		.cfi_startproc
 238 0000 90B5     		push	{r4, r7, lr}
 239              		.cfi_def_cfa_offset 12
 240              		.cfi_offset 4, -12
 241              		.cfi_offset 7, -8
 242              		.cfi_offset 14, -4
 243 0002 85B0     		sub	sp, sp, #20
 244              		.cfi_def_cfa_offset 32
 245 0004 00AF     		add	r7, sp, #0
 246              		.cfi_def_cfa_register 7
 247 0006 021C     		mov	r2, r0
 248 0008 FB1D     		add	r3, r7, #7
 249 000a 1A70     		strb	r2, [r3]
  69:.\menus.c     ****     if (menu == MAIN){
 250              		.loc 1 69 0
 251 000c FB1D     		add	r3, r7, #7
 252 000e 1B78     		ldrb	r3, [r3]
 253 0010 002B     		cmp	r3, #0
 254 0012 34D1     		bne	.L18
 255              	.LBB2:
  70:.\menus.c     ****         int16 temp = ADC_GetResult16(0);
ARM GAS  C:\Users\Snufkin\AppData\Local\Temp\ccdHed5r.s 			page 7


 256              		.loc 1 70 0
 257 0014 3C1C     		mov	r4, r7
 258 0016 0E34     		add	r4, r4, #14
 259 0018 0020     		mov	r0, #0
 260 001a FFF7FEFF 		bl	ADC_GetResult16
 261 001e 031C     		mov	r3, r0
 262 0020 2380     		strh	r3, [r4]
  71:.\menus.c     ****         
  72:.\menus.c     ****         if(menu != oldMenu){
 263              		.loc 1 72 0
 264 0022 3C4B     		ldr	r3, .L26
 265 0024 1B78     		ldrb	r3, [r3]
 266 0026 FA1D     		add	r2, r7, #7
 267 0028 1278     		ldrb	r2, [r2]
 268 002a 9A42     		cmp	r2, r3
 269 002c 06D0     		beq	.L19
  73:.\menus.c     ****             clearLine(0);
 270              		.loc 1 73 0
 271 002e 0020     		mov	r0, #0
 272 0030 FFF7FEFF 		bl	clearLine
  74:.\menus.c     ****             LCD_PrintString("    <MAIN>     ");
 273              		.loc 1 74 0
 274 0034 384B     		ldr	r3, .L26+4
 275 0036 181C     		mov	r0, r3
 276 0038 FFF7FEFF 		bl	LCD_PrintString
 277              	.L19:
  75:.\menus.c     ****         }        
  76:.\menus.c     **** 
  77:.\menus.c     ****         if (temp > lightMax || menu != oldMenu){
 278              		.loc 1 77 0
 279 003c 3B1C     		mov	r3, r7
 280 003e 0E33     		add	r3, r3, #14
 281 0040 0021     		mov	r1, #0
 282 0042 5A5E     		ldrsh	r2, [r3, r1]
 283 0044 354B     		ldr	r3, .L26+8
 284 0046 1B88     		ldrh	r3, [r3]
 285 0048 9A42     		cmp	r2, r3
 286 004a 05DC     		bgt	.L20
 287              		.loc 1 77 0 is_stmt 0 discriminator 1
 288 004c 314B     		ldr	r3, .L26
 289 004e 1B78     		ldrb	r3, [r3]
 290 0050 FA1D     		add	r2, r7, #7
 291 0052 1278     		ldrb	r2, [r2]
 292 0054 9A42     		cmp	r2, r3
 293 0056 11D0     		beq	.L21
 294              	.L20:
  78:.\menus.c     ****             lightMax = temp;
 295              		.loc 1 78 0 is_stmt 1
 296 0058 3B1C     		mov	r3, r7
 297 005a 0E33     		add	r3, r3, #14
 298 005c 1A88     		ldrh	r2, [r3]
 299 005e 2F4B     		ldr	r3, .L26+8
 300 0060 1A80     		strh	r2, [r3]
  79:.\menus.c     ****             clearLine(1);
 301              		.loc 1 79 0
 302 0062 0120     		mov	r0, #1
 303 0064 FFF7FEFF 		bl	clearLine
ARM GAS  C:\Users\Snufkin\AppData\Local\Temp\ccdHed5r.s 			page 8


  80:.\menus.c     ****             LCD_PrintString("Max: ");
 304              		.loc 1 80 0
 305 0068 2D4B     		ldr	r3, .L26+12
 306 006a 181C     		mov	r0, r3
 307 006c FFF7FEFF 		bl	LCD_PrintString
  81:.\menus.c     ****             LCD_PrintNumber(lightMax);
 308              		.loc 1 81 0
 309 0070 2A4B     		ldr	r3, .L26+8
 310 0072 1B88     		ldrh	r3, [r3]
 311 0074 181C     		mov	r0, r3
 312 0076 FFF7FEFF 		bl	LCD_PrintNumber
 313              	.LBE2:
 314 007a 41E0     		b	.L22
 315              	.L21:
 316 007c 40E0     		b	.L22
 317              	.L18:
  82:.\menus.c     ****         }
  83:.\menus.c     ****     }
  84:.\menus.c     ****     else if(menu == CALIBRATION){
 318              		.loc 1 84 0
 319 007e FB1D     		add	r3, r7, #7
 320 0080 1B78     		ldrb	r3, [r3]
 321 0082 012B     		cmp	r3, #1
 322 0084 1DD1     		bne	.L23
  85:.\menus.c     ****         if(menu != oldMenu){
 323              		.loc 1 85 0
 324 0086 234B     		ldr	r3, .L26
 325 0088 1B78     		ldrb	r3, [r3]
 326 008a FA1D     		add	r2, r7, #7
 327 008c 1278     		ldrb	r2, [r2]
 328 008e 9A42     		cmp	r2, r3
 329 0090 0DD0     		beq	.L24
  86:.\menus.c     ****             clearLine(0);
 330              		.loc 1 86 0
 331 0092 0020     		mov	r0, #0
 332 0094 FFF7FEFF 		bl	clearLine
  87:.\menus.c     ****             LCD_PrintString(" <CALIBRATION>  ");
 333              		.loc 1 87 0
 334 0098 224B     		ldr	r3, .L26+16
 335 009a 181C     		mov	r0, r3
 336 009c FFF7FEFF 		bl	LCD_PrintString
  88:.\menus.c     ****             clearLine(1);
 337              		.loc 1 88 0
 338 00a0 0120     		mov	r0, #1
 339 00a2 FFF7FEFF 		bl	clearLine
  89:.\menus.c     ****             LCD_PrintString("target: ");
 340              		.loc 1 89 0
 341 00a6 204B     		ldr	r3, .L26+20
 342 00a8 181C     		mov	r0, r3
 343 00aa FFF7FEFF 		bl	LCD_PrintString
 344              	.L24:
  90:.\menus.c     ****         }
  91:.\menus.c     ****         LCD_Position(1,8);
 345              		.loc 1 91 0
 346 00ae 0120     		mov	r0, #1
 347 00b0 0821     		mov	r1, #8
 348 00b2 FFF7FEFF 		bl	LCD_Position
ARM GAS  C:\Users\Snufkin\AppData\Local\Temp\ccdHed5r.s 			page 9


  92:.\menus.c     ****         LCD_PrintNumber(target);
 349              		.loc 1 92 0
 350 00b6 1D4B     		ldr	r3, .L26+24
 351 00b8 1B88     		ldrh	r3, [r3]
 352 00ba 181C     		mov	r0, r3
 353 00bc FFF7FEFF 		bl	LCD_PrintNumber
 354 00c0 1EE0     		b	.L22
 355              	.L23:
  93:.\menus.c     ****     }
  94:.\menus.c     ****     else if(menu == RESULTS){
 356              		.loc 1 94 0
 357 00c2 FB1D     		add	r3, r7, #7
 358 00c4 1B78     		ldrb	r3, [r3]
 359 00c6 022B     		cmp	r3, #2
 360 00c8 1AD1     		bne	.L22
  95:.\menus.c     ****         if(menu != oldMenu){
 361              		.loc 1 95 0
 362 00ca 124B     		ldr	r3, .L26
 363 00cc 1B78     		ldrb	r3, [r3]
 364 00ce FA1D     		add	r2, r7, #7
 365 00d0 1278     		ldrb	r2, [r2]
 366 00d2 9A42     		cmp	r2, r3
 367 00d4 0DD0     		beq	.L25
  96:.\menus.c     ****             clearLine(0);
 368              		.loc 1 96 0
 369 00d6 0020     		mov	r0, #0
 370 00d8 FFF7FEFF 		bl	clearLine
  97:.\menus.c     ****             LCD_PrintString("   <RESULTS>    ");
 371              		.loc 1 97 0
 372 00dc 144B     		ldr	r3, .L26+28
 373 00de 181C     		mov	r0, r3
 374 00e0 FFF7FEFF 		bl	LCD_PrintString
  98:.\menus.c     ****             clearLine(1);
 375              		.loc 1 98 0
 376 00e4 0120     		mov	r0, #1
 377 00e6 FFF7FEFF 		bl	clearLine
  99:.\menus.c     ****             LCD_PrintString("last timing: ");
 378              		.loc 1 99 0
 379 00ea 124B     		ldr	r3, .L26+32
 380 00ec 181C     		mov	r0, r3
 381 00ee FFF7FEFF 		bl	LCD_PrintString
 382              	.L25:
 100:.\menus.c     ****         }
 101:.\menus.c     ****         LCD_Position(1,13);
 383              		.loc 1 101 0
 384 00f2 0120     		mov	r0, #1
 385 00f4 0D21     		mov	r1, #13
 386 00f6 FFF7FEFF 		bl	LCD_Position
 102:.\menus.c     ****         LCD_PrintNumber(123);
 387              		.loc 1 102 0
 388 00fa 7B20     		mov	r0, #123
 389 00fc FFF7FEFF 		bl	LCD_PrintNumber
 390              	.L22:
 103:.\menus.c     ****     }
 104:.\menus.c     ****     
 105:.\menus.c     ****     oldMenu = menu;
 391              		.loc 1 105 0
ARM GAS  C:\Users\Snufkin\AppData\Local\Temp\ccdHed5r.s 			page 10


 392 0100 044B     		ldr	r3, .L26
 393 0102 FA1D     		add	r2, r7, #7
 394 0104 1278     		ldrb	r2, [r2]
 395 0106 1A70     		strb	r2, [r3]
 106:.\menus.c     ****     CyDelay(15);
 396              		.loc 1 106 0
 397 0108 0F20     		mov	r0, #15
 398 010a FFF7FEFF 		bl	CyDelay
 107:.\menus.c     **** }
 399              		.loc 1 107 0
 400 010e BD46     		mov	sp, r7
 401 0110 05B0     		add	sp, sp, #20
 402              		@ sp needed
 403 0112 90BD     		pop	{r4, r7, pc}
 404              	.L27:
 405              		.align	2
 406              	.L26:
 407 0114 01000000 		.word	oldMenu
 408 0118 00000000 		.word	.LC4
 409 011c 00000000 		.word	lightMax
 410 0120 10000000 		.word	.LC7
 411 0124 18000000 		.word	.LC9
 412 0128 2C000000 		.word	.LC11
 413 012c 00000000 		.word	target
 414 0130 38000000 		.word	.LC14
 415 0134 4C000000 		.word	.LC16
 416              		.cfi_endproc
 417              	.LFE34:
 418              		.size	drawMenu, .-drawMenu
 419              		.section	.rodata
 420 005a 0000     		.align	2
 421              	.LC18:
 422 005c 20202020 		.ascii	"                \000"
 422      20202020 
 422      20202020 
 422      20202020 
 422      00
 423 006d 000000   		.section	.text.clearLine,"ax",%progbits
 424              		.align	2
 425              		.global	clearLine
 426              		.code	16
 427              		.thumb_func
 428              		.type	clearLine, %function
 429              	clearLine:
 430              	.LFB35:
 108:.\menus.c     **** 
 109:.\menus.c     **** void clearLine(uint8 row){
 431              		.loc 1 109 0
 432              		.cfi_startproc
 433 0000 80B5     		push	{r7, lr}
 434              		.cfi_def_cfa_offset 8
 435              		.cfi_offset 7, -8
 436              		.cfi_offset 14, -4
 437 0002 82B0     		sub	sp, sp, #8
 438              		.cfi_def_cfa_offset 16
 439 0004 00AF     		add	r7, sp, #0
 440              		.cfi_def_cfa_register 7
ARM GAS  C:\Users\Snufkin\AppData\Local\Temp\ccdHed5r.s 			page 11


 441 0006 021C     		mov	r2, r0
 442 0008 FB1D     		add	r3, r7, #7
 443 000a 1A70     		strb	r2, [r3]
 110:.\menus.c     ****     LCD_Position(row,0);
 444              		.loc 1 110 0
 445 000c FB1D     		add	r3, r7, #7
 446 000e 1B78     		ldrb	r3, [r3]
 447 0010 181C     		mov	r0, r3
 448 0012 0021     		mov	r1, #0
 449 0014 FFF7FEFF 		bl	LCD_Position
 111:.\menus.c     ****     LCD_PrintString("                ");
 450              		.loc 1 111 0
 451 0018 064B     		ldr	r3, .L29
 452 001a 181C     		mov	r0, r3
 453 001c FFF7FEFF 		bl	LCD_PrintString
 112:.\menus.c     ****     LCD_Position(row,0);
 454              		.loc 1 112 0
 455 0020 FB1D     		add	r3, r7, #7
 456 0022 1B78     		ldrb	r3, [r3]
 457 0024 181C     		mov	r0, r3
 458 0026 0021     		mov	r1, #0
 459 0028 FFF7FEFF 		bl	LCD_Position
 113:.\menus.c     **** }
 460              		.loc 1 113 0
 461 002c BD46     		mov	sp, r7
 462 002e 02B0     		add	sp, sp, #8
 463              		@ sp needed
 464 0030 80BD     		pop	{r7, pc}
 465              	.L30:
 466 0032 C046     		.align	2
 467              	.L29:
 468 0034 5C000000 		.word	.LC18
 469              		.cfi_endproc
 470              	.LFE35:
 471              		.size	clearLine, .-clearLine
 472              		.text
 473              	.Letext0:
 474              		.file 2 ".\\Generated_Source\\PSoC4/cytypes.h"
 475              		.file 3 ".\\menus.h"
 476              		.file 4 ".\\keypad.h"