ARM GAS  C:\Users\Snufkin\AppData\Local\Temp\ccENfz0T.s 			page 1


   1              		.cpu cortex-m0
   2              		.fpu softvfp
   3              		.eabi_attribute 20, 1
   4              		.eabi_attribute 21, 1
   5              		.eabi_attribute 23, 3
   6              		.eabi_attribute 24, 1
   7              		.eabi_attribute 25, 1
   8              		.eabi_attribute 26, 1
   9              		.eabi_attribute 30, 6
  10              		.eabi_attribute 34, 0
  11              		.eabi_attribute 18, 4
  12              		.code	16
  13              		.file	"t1_int.c"
  14              		.text
  15              	.Ltext0:
  16              		.cfi_sections	.debug_frame
  17              		.section	.text.t1_int_Start,"ax",%progbits
  18              		.align	2
  19              		.global	t1_int_Start
  20              		.code	16
  21              		.thumb_func
  22              		.type	t1_int_Start, %function
  23              	t1_int_Start:
  24              	.LFB0:
  25              		.file 1 ".\\Generated_Source\\PSoC4\\t1_int.c"
   1:.\Generated_Source\PSoC4/t1_int.c **** /*******************************************************************************
   2:.\Generated_Source\PSoC4/t1_int.c **** * File Name: t1_int.c  
   3:.\Generated_Source\PSoC4/t1_int.c **** * Version 1.70
   4:.\Generated_Source\PSoC4/t1_int.c **** *
   5:.\Generated_Source\PSoC4/t1_int.c **** *  Description:
   6:.\Generated_Source\PSoC4/t1_int.c **** *   API for controlling the state of an interrupt.
   7:.\Generated_Source\PSoC4/t1_int.c **** *
   8:.\Generated_Source\PSoC4/t1_int.c **** *
   9:.\Generated_Source\PSoC4/t1_int.c **** *  Note:
  10:.\Generated_Source\PSoC4/t1_int.c **** *
  11:.\Generated_Source\PSoC4/t1_int.c **** ********************************************************************************
  12:.\Generated_Source\PSoC4/t1_int.c **** * Copyright 2008-2015, Cypress Semiconductor Corporation.  All rights reserved.
  13:.\Generated_Source\PSoC4/t1_int.c **** * You may use this file only in accordance with the license, terms, conditions, 
  14:.\Generated_Source\PSoC4/t1_int.c **** * disclaimers, and limitations in the end user license agreement accompanying 
  15:.\Generated_Source\PSoC4/t1_int.c **** * the software package with which this file was provided.
  16:.\Generated_Source\PSoC4/t1_int.c **** *******************************************************************************/
  17:.\Generated_Source\PSoC4/t1_int.c **** 
  18:.\Generated_Source\PSoC4/t1_int.c **** 
  19:.\Generated_Source\PSoC4/t1_int.c **** #include <cydevice_trm.h>
  20:.\Generated_Source\PSoC4/t1_int.c **** #include <CyLib.h>
  21:.\Generated_Source\PSoC4/t1_int.c **** #include <t1_int.h>
  22:.\Generated_Source\PSoC4/t1_int.c **** 
  23:.\Generated_Source\PSoC4/t1_int.c **** #if !defined(t1_int__REMOVED) /* Check for removal by optimization */
  24:.\Generated_Source\PSoC4/t1_int.c **** 
  25:.\Generated_Source\PSoC4/t1_int.c **** /*******************************************************************************
  26:.\Generated_Source\PSoC4/t1_int.c **** *  Place your includes, defines and code here 
  27:.\Generated_Source\PSoC4/t1_int.c **** ********************************************************************************/
  28:.\Generated_Source\PSoC4/t1_int.c **** /* `#START t1_int_intc` */
  29:.\Generated_Source\PSoC4/t1_int.c **** 
  30:.\Generated_Source\PSoC4/t1_int.c **** /* `#END` */
  31:.\Generated_Source\PSoC4/t1_int.c **** 
  32:.\Generated_Source\PSoC4/t1_int.c **** extern cyisraddress CyRamVectors[CYINT_IRQ_BASE + CY_NUM_INTERRUPTS];
ARM GAS  C:\Users\Snufkin\AppData\Local\Temp\ccENfz0T.s 			page 2


  33:.\Generated_Source\PSoC4/t1_int.c **** 
  34:.\Generated_Source\PSoC4/t1_int.c **** /* Declared in startup, used to set unused interrupts to. */
  35:.\Generated_Source\PSoC4/t1_int.c **** CY_ISR_PROTO(IntDefaultHandler);
  36:.\Generated_Source\PSoC4/t1_int.c **** 
  37:.\Generated_Source\PSoC4/t1_int.c **** 
  38:.\Generated_Source\PSoC4/t1_int.c **** /*******************************************************************************
  39:.\Generated_Source\PSoC4/t1_int.c **** * Function Name: t1_int_Start
  40:.\Generated_Source\PSoC4/t1_int.c **** ********************************************************************************
  41:.\Generated_Source\PSoC4/t1_int.c **** *
  42:.\Generated_Source\PSoC4/t1_int.c **** * Summary:
  43:.\Generated_Source\PSoC4/t1_int.c **** *  Set up the interrupt and enable it. This function disables the interrupt, 
  44:.\Generated_Source\PSoC4/t1_int.c **** *  sets the default interrupt vector, sets the priority from the value in the
  45:.\Generated_Source\PSoC4/t1_int.c **** *  Design Wide Resources Interrupt Editor, then enables the interrupt to the 
  46:.\Generated_Source\PSoC4/t1_int.c **** *  interrupt controller.
  47:.\Generated_Source\PSoC4/t1_int.c **** *
  48:.\Generated_Source\PSoC4/t1_int.c **** * Parameters:  
  49:.\Generated_Source\PSoC4/t1_int.c **** *   None
  50:.\Generated_Source\PSoC4/t1_int.c **** *
  51:.\Generated_Source\PSoC4/t1_int.c **** * Return:
  52:.\Generated_Source\PSoC4/t1_int.c **** *   None
  53:.\Generated_Source\PSoC4/t1_int.c **** *
  54:.\Generated_Source\PSoC4/t1_int.c **** *******************************************************************************/
  55:.\Generated_Source\PSoC4/t1_int.c **** void t1_int_Start(void)
  56:.\Generated_Source\PSoC4/t1_int.c **** {
  26              		.loc 1 56 0
  27              		.cfi_startproc
  28 0000 80B5     		push	{r7, lr}
  29              		.cfi_def_cfa_offset 8
  30              		.cfi_offset 7, -8
  31              		.cfi_offset 14, -4
  32 0002 00AF     		add	r7, sp, #0
  33              		.cfi_def_cfa_register 7
  57:.\Generated_Source\PSoC4/t1_int.c ****     /* For all we know the interrupt is active. */
  58:.\Generated_Source\PSoC4/t1_int.c ****     t1_int_Disable();
  34              		.loc 1 58 0
  35 0004 FFF7FEFF 		bl	t1_int_Disable
  59:.\Generated_Source\PSoC4/t1_int.c **** 
  60:.\Generated_Source\PSoC4/t1_int.c ****     /* Set the ISR to point to the t1_int Interrupt. */
  61:.\Generated_Source\PSoC4/t1_int.c ****     t1_int_SetVector(&t1_int_Interrupt);
  36              		.loc 1 61 0
  37 0008 054B     		ldr	r3, .L2
  38 000a 181C     		mov	r0, r3
  39 000c FFF7FEFF 		bl	t1_int_SetVector
  62:.\Generated_Source\PSoC4/t1_int.c **** 
  63:.\Generated_Source\PSoC4/t1_int.c ****     /* Set the priority. */
  64:.\Generated_Source\PSoC4/t1_int.c ****     t1_int_SetPriority((uint8)t1_int_INTC_PRIOR_NUMBER);
  40              		.loc 1 64 0
  41 0010 0320     		mov	r0, #3
  42 0012 FFF7FEFF 		bl	t1_int_SetPriority
  65:.\Generated_Source\PSoC4/t1_int.c **** 
  66:.\Generated_Source\PSoC4/t1_int.c ****     /* Enable it. */
  67:.\Generated_Source\PSoC4/t1_int.c ****     t1_int_Enable();
  43              		.loc 1 67 0
  44 0016 FFF7FEFF 		bl	t1_int_Enable
  68:.\Generated_Source\PSoC4/t1_int.c **** }
  45              		.loc 1 68 0
  46 001a BD46     		mov	sp, r7
ARM GAS  C:\Users\Snufkin\AppData\Local\Temp\ccENfz0T.s 			page 3


  47              		@ sp needed
  48 001c 80BD     		pop	{r7, pc}
  49              	.L3:
  50 001e C046     		.align	2
  51              	.L2:
  52 0020 00000000 		.word	t1_int_Interrupt
  53              		.cfi_endproc
  54              	.LFE0:
  55              		.size	t1_int_Start, .-t1_int_Start
  56              		.section	.text.t1_int_StartEx,"ax",%progbits
  57              		.align	2
  58              		.global	t1_int_StartEx
  59              		.code	16
  60              		.thumb_func
  61              		.type	t1_int_StartEx, %function
  62              	t1_int_StartEx:
  63              	.LFB1:
  69:.\Generated_Source\PSoC4/t1_int.c **** 
  70:.\Generated_Source\PSoC4/t1_int.c **** 
  71:.\Generated_Source\PSoC4/t1_int.c **** /*******************************************************************************
  72:.\Generated_Source\PSoC4/t1_int.c **** * Function Name: t1_int_StartEx
  73:.\Generated_Source\PSoC4/t1_int.c **** ********************************************************************************
  74:.\Generated_Source\PSoC4/t1_int.c **** *
  75:.\Generated_Source\PSoC4/t1_int.c **** * Summary:
  76:.\Generated_Source\PSoC4/t1_int.c **** *  Sets up the interrupt and enables it. This function disables the interrupt,
  77:.\Generated_Source\PSoC4/t1_int.c **** *  sets the interrupt vector based on the address passed in, sets the priority 
  78:.\Generated_Source\PSoC4/t1_int.c **** *  from the value in the Design Wide Resources Interrupt Editor, then enables 
  79:.\Generated_Source\PSoC4/t1_int.c **** *  the interrupt to the interrupt controller.
  80:.\Generated_Source\PSoC4/t1_int.c **** *  
  81:.\Generated_Source\PSoC4/t1_int.c **** *  When defining ISR functions, the CY_ISR and CY_ISR_PROTO macros should be 
  82:.\Generated_Source\PSoC4/t1_int.c **** *  used to provide consistent definition across compilers:
  83:.\Generated_Source\PSoC4/t1_int.c **** *  
  84:.\Generated_Source\PSoC4/t1_int.c **** *  Function definition example:
  85:.\Generated_Source\PSoC4/t1_int.c **** *   CY_ISR(MyISR)
  86:.\Generated_Source\PSoC4/t1_int.c **** *   {
  87:.\Generated_Source\PSoC4/t1_int.c **** *   }
  88:.\Generated_Source\PSoC4/t1_int.c **** *   Function prototype example:
  89:.\Generated_Source\PSoC4/t1_int.c **** *   CY_ISR_PROTO(MyISR);
  90:.\Generated_Source\PSoC4/t1_int.c **** *
  91:.\Generated_Source\PSoC4/t1_int.c **** * Parameters:  
  92:.\Generated_Source\PSoC4/t1_int.c **** *   address: Address of the ISR to set in the interrupt vector table.
  93:.\Generated_Source\PSoC4/t1_int.c **** *
  94:.\Generated_Source\PSoC4/t1_int.c **** * Return:
  95:.\Generated_Source\PSoC4/t1_int.c **** *   None
  96:.\Generated_Source\PSoC4/t1_int.c **** *
  97:.\Generated_Source\PSoC4/t1_int.c **** *******************************************************************************/
  98:.\Generated_Source\PSoC4/t1_int.c **** void t1_int_StartEx(cyisraddress address)
  99:.\Generated_Source\PSoC4/t1_int.c **** {
  64              		.loc 1 99 0
  65              		.cfi_startproc
  66 0000 80B5     		push	{r7, lr}
  67              		.cfi_def_cfa_offset 8
  68              		.cfi_offset 7, -8
  69              		.cfi_offset 14, -4
  70 0002 82B0     		sub	sp, sp, #8
  71              		.cfi_def_cfa_offset 16
  72 0004 00AF     		add	r7, sp, #0
ARM GAS  C:\Users\Snufkin\AppData\Local\Temp\ccENfz0T.s 			page 4


  73              		.cfi_def_cfa_register 7
  74 0006 7860     		str	r0, [r7, #4]
 100:.\Generated_Source\PSoC4/t1_int.c ****     /* For all we know the interrupt is active. */
 101:.\Generated_Source\PSoC4/t1_int.c ****     t1_int_Disable();
  75              		.loc 1 101 0
  76 0008 FFF7FEFF 		bl	t1_int_Disable
 102:.\Generated_Source\PSoC4/t1_int.c **** 
 103:.\Generated_Source\PSoC4/t1_int.c ****     /* Set the ISR to point to the t1_int Interrupt. */
 104:.\Generated_Source\PSoC4/t1_int.c ****     t1_int_SetVector(address);
  77              		.loc 1 104 0
  78 000c 7B68     		ldr	r3, [r7, #4]
  79 000e 181C     		mov	r0, r3
  80 0010 FFF7FEFF 		bl	t1_int_SetVector
 105:.\Generated_Source\PSoC4/t1_int.c **** 
 106:.\Generated_Source\PSoC4/t1_int.c ****     /* Set the priority. */
 107:.\Generated_Source\PSoC4/t1_int.c ****     t1_int_SetPriority((uint8)t1_int_INTC_PRIOR_NUMBER);
  81              		.loc 1 107 0
  82 0014 0320     		mov	r0, #3
  83 0016 FFF7FEFF 		bl	t1_int_SetPriority
 108:.\Generated_Source\PSoC4/t1_int.c **** 
 109:.\Generated_Source\PSoC4/t1_int.c ****     /* Enable it. */
 110:.\Generated_Source\PSoC4/t1_int.c ****     t1_int_Enable();
  84              		.loc 1 110 0
  85 001a FFF7FEFF 		bl	t1_int_Enable
 111:.\Generated_Source\PSoC4/t1_int.c **** }
  86              		.loc 1 111 0
  87 001e BD46     		mov	sp, r7
  88 0020 02B0     		add	sp, sp, #8
  89              		@ sp needed
  90 0022 80BD     		pop	{r7, pc}
  91              		.cfi_endproc
  92              	.LFE1:
  93              		.size	t1_int_StartEx, .-t1_int_StartEx
  94              		.section	.text.t1_int_Stop,"ax",%progbits
  95              		.align	2
  96              		.global	t1_int_Stop
  97              		.code	16
  98              		.thumb_func
  99              		.type	t1_int_Stop, %function
 100              	t1_int_Stop:
 101              	.LFB2:
 112:.\Generated_Source\PSoC4/t1_int.c **** 
 113:.\Generated_Source\PSoC4/t1_int.c **** 
 114:.\Generated_Source\PSoC4/t1_int.c **** /*******************************************************************************
 115:.\Generated_Source\PSoC4/t1_int.c **** * Function Name: t1_int_Stop
 116:.\Generated_Source\PSoC4/t1_int.c **** ********************************************************************************
 117:.\Generated_Source\PSoC4/t1_int.c **** *
 118:.\Generated_Source\PSoC4/t1_int.c **** * Summary:
 119:.\Generated_Source\PSoC4/t1_int.c **** *   Disables and removes the interrupt.
 120:.\Generated_Source\PSoC4/t1_int.c **** *
 121:.\Generated_Source\PSoC4/t1_int.c **** * Parameters:  
 122:.\Generated_Source\PSoC4/t1_int.c **** *   None
 123:.\Generated_Source\PSoC4/t1_int.c **** *
 124:.\Generated_Source\PSoC4/t1_int.c **** * Return:
 125:.\Generated_Source\PSoC4/t1_int.c **** *   None
 126:.\Generated_Source\PSoC4/t1_int.c **** *
 127:.\Generated_Source\PSoC4/t1_int.c **** *******************************************************************************/
ARM GAS  C:\Users\Snufkin\AppData\Local\Temp\ccENfz0T.s 			page 5


 128:.\Generated_Source\PSoC4/t1_int.c **** void t1_int_Stop(void)
 129:.\Generated_Source\PSoC4/t1_int.c **** {
 102              		.loc 1 129 0
 103              		.cfi_startproc
 104 0000 80B5     		push	{r7, lr}
 105              		.cfi_def_cfa_offset 8
 106              		.cfi_offset 7, -8
 107              		.cfi_offset 14, -4
 108 0002 00AF     		add	r7, sp, #0
 109              		.cfi_def_cfa_register 7
 130:.\Generated_Source\PSoC4/t1_int.c ****     /* Disable this interrupt. */
 131:.\Generated_Source\PSoC4/t1_int.c ****     t1_int_Disable();
 110              		.loc 1 131 0
 111 0004 FFF7FEFF 		bl	t1_int_Disable
 132:.\Generated_Source\PSoC4/t1_int.c **** 
 133:.\Generated_Source\PSoC4/t1_int.c ****     /* Set the ISR to point to the passive one. */
 134:.\Generated_Source\PSoC4/t1_int.c ****     t1_int_SetVector(&IntDefaultHandler);
 112              		.loc 1 134 0
 113 0008 024B     		ldr	r3, .L6
 114 000a 181C     		mov	r0, r3
 115 000c FFF7FEFF 		bl	t1_int_SetVector
 135:.\Generated_Source\PSoC4/t1_int.c **** }
 116              		.loc 1 135 0
 117 0010 BD46     		mov	sp, r7
 118              		@ sp needed
 119 0012 80BD     		pop	{r7, pc}
 120              	.L7:
 121              		.align	2
 122              	.L6:
 123 0014 00000000 		.word	IntDefaultHandler
 124              		.cfi_endproc
 125              	.LFE2:
 126              		.size	t1_int_Stop, .-t1_int_Stop
 127              		.section	.text.t1_int_Interrupt,"ax",%progbits
 128              		.align	2
 129              		.global	t1_int_Interrupt
 130              		.code	16
 131              		.thumb_func
 132              		.type	t1_int_Interrupt, %function
 133              	t1_int_Interrupt:
 134              	.LFB3:
 136:.\Generated_Source\PSoC4/t1_int.c **** 
 137:.\Generated_Source\PSoC4/t1_int.c **** 
 138:.\Generated_Source\PSoC4/t1_int.c **** /*******************************************************************************
 139:.\Generated_Source\PSoC4/t1_int.c **** * Function Name: t1_int_Interrupt
 140:.\Generated_Source\PSoC4/t1_int.c **** ********************************************************************************
 141:.\Generated_Source\PSoC4/t1_int.c **** *
 142:.\Generated_Source\PSoC4/t1_int.c **** * Summary:
 143:.\Generated_Source\PSoC4/t1_int.c **** *   The default Interrupt Service Routine for t1_int.
 144:.\Generated_Source\PSoC4/t1_int.c **** *
 145:.\Generated_Source\PSoC4/t1_int.c **** *   Add custom code between the START and END comments to keep the next version
 146:.\Generated_Source\PSoC4/t1_int.c **** *   of this file from over-writing your code.
 147:.\Generated_Source\PSoC4/t1_int.c **** *
 148:.\Generated_Source\PSoC4/t1_int.c **** *   Note You may use either the default ISR by using this API, or you may define
 149:.\Generated_Source\PSoC4/t1_int.c **** *   your own separate ISR through ISR_StartEx().
 150:.\Generated_Source\PSoC4/t1_int.c **** *
 151:.\Generated_Source\PSoC4/t1_int.c **** * Parameters:  
ARM GAS  C:\Users\Snufkin\AppData\Local\Temp\ccENfz0T.s 			page 6


 152:.\Generated_Source\PSoC4/t1_int.c **** *   None
 153:.\Generated_Source\PSoC4/t1_int.c **** *
 154:.\Generated_Source\PSoC4/t1_int.c **** * Return:
 155:.\Generated_Source\PSoC4/t1_int.c **** *   None
 156:.\Generated_Source\PSoC4/t1_int.c **** *
 157:.\Generated_Source\PSoC4/t1_int.c **** *******************************************************************************/
 158:.\Generated_Source\PSoC4/t1_int.c **** CY_ISR(t1_int_Interrupt)
 159:.\Generated_Source\PSoC4/t1_int.c **** {
 135              		.loc 1 159 0
 136              		.cfi_startproc
 137 0000 80B5     		push	{r7, lr}
 138              		.cfi_def_cfa_offset 8
 139              		.cfi_offset 7, -8
 140              		.cfi_offset 14, -4
 141 0002 00AF     		add	r7, sp, #0
 142              		.cfi_def_cfa_register 7
 160:.\Generated_Source\PSoC4/t1_int.c ****     /*  Place your Interrupt code here. */
 161:.\Generated_Source\PSoC4/t1_int.c ****     /* `#START t1_int_Interrupt` */
 162:.\Generated_Source\PSoC4/t1_int.c **** 
 163:.\Generated_Source\PSoC4/t1_int.c ****     /* `#END` */
 164:.\Generated_Source\PSoC4/t1_int.c **** }
 143              		.loc 1 164 0
 144 0004 BD46     		mov	sp, r7
 145              		@ sp needed
 146 0006 80BD     		pop	{r7, pc}
 147              		.cfi_endproc
 148              	.LFE3:
 149              		.size	t1_int_Interrupt, .-t1_int_Interrupt
 150              		.section	.text.t1_int_SetVector,"ax",%progbits
 151              		.align	2
 152              		.global	t1_int_SetVector
 153              		.code	16
 154              		.thumb_func
 155              		.type	t1_int_SetVector, %function
 156              	t1_int_SetVector:
 157              	.LFB4:
 165:.\Generated_Source\PSoC4/t1_int.c **** 
 166:.\Generated_Source\PSoC4/t1_int.c **** 
 167:.\Generated_Source\PSoC4/t1_int.c **** /*******************************************************************************
 168:.\Generated_Source\PSoC4/t1_int.c **** * Function Name: t1_int_SetVector
 169:.\Generated_Source\PSoC4/t1_int.c **** ********************************************************************************
 170:.\Generated_Source\PSoC4/t1_int.c **** *
 171:.\Generated_Source\PSoC4/t1_int.c **** * Summary:
 172:.\Generated_Source\PSoC4/t1_int.c **** *   Change the ISR vector for the Interrupt. Note calling t1_int_Start
 173:.\Generated_Source\PSoC4/t1_int.c **** *   will override any effect this method would have had. To set the vector 
 174:.\Generated_Source\PSoC4/t1_int.c **** *   before the component has been started use t1_int_StartEx instead.
 175:.\Generated_Source\PSoC4/t1_int.c **** * 
 176:.\Generated_Source\PSoC4/t1_int.c **** *   When defining ISR functions, the CY_ISR and CY_ISR_PROTO macros should be 
 177:.\Generated_Source\PSoC4/t1_int.c **** *   used to provide consistent definition across compilers:
 178:.\Generated_Source\PSoC4/t1_int.c **** *
 179:.\Generated_Source\PSoC4/t1_int.c **** *   Function definition example:
 180:.\Generated_Source\PSoC4/t1_int.c **** *   CY_ISR(MyISR)
 181:.\Generated_Source\PSoC4/t1_int.c **** *   {
 182:.\Generated_Source\PSoC4/t1_int.c **** *   }
 183:.\Generated_Source\PSoC4/t1_int.c **** *
 184:.\Generated_Source\PSoC4/t1_int.c **** *   Function prototype example:
 185:.\Generated_Source\PSoC4/t1_int.c **** *     CY_ISR_PROTO(MyISR);
ARM GAS  C:\Users\Snufkin\AppData\Local\Temp\ccENfz0T.s 			page 7


 186:.\Generated_Source\PSoC4/t1_int.c **** *
 187:.\Generated_Source\PSoC4/t1_int.c **** * Parameters:
 188:.\Generated_Source\PSoC4/t1_int.c **** *   address: Address of the ISR to set in the interrupt vector table.
 189:.\Generated_Source\PSoC4/t1_int.c **** *
 190:.\Generated_Source\PSoC4/t1_int.c **** * Return:
 191:.\Generated_Source\PSoC4/t1_int.c **** *   None
 192:.\Generated_Source\PSoC4/t1_int.c **** *
 193:.\Generated_Source\PSoC4/t1_int.c **** *******************************************************************************/
 194:.\Generated_Source\PSoC4/t1_int.c **** void t1_int_SetVector(cyisraddress address)
 195:.\Generated_Source\PSoC4/t1_int.c **** {
 158              		.loc 1 195 0
 159              		.cfi_startproc
 160 0000 80B5     		push	{r7, lr}
 161              		.cfi_def_cfa_offset 8
 162              		.cfi_offset 7, -8
 163              		.cfi_offset 14, -4
 164 0002 82B0     		sub	sp, sp, #8
 165              		.cfi_def_cfa_offset 16
 166 0004 00AF     		add	r7, sp, #0
 167              		.cfi_def_cfa_register 7
 168 0006 7860     		str	r0, [r7, #4]
 196:.\Generated_Source\PSoC4/t1_int.c ****     CyRamVectors[CYINT_IRQ_BASE + t1_int__INTC_NUMBER] = address;
 169              		.loc 1 196 0
 170 0008 024B     		ldr	r3, .L10
 171 000a 7A68     		ldr	r2, [r7, #4]
 172 000c DA64     		str	r2, [r3, #76]
 197:.\Generated_Source\PSoC4/t1_int.c **** }
 173              		.loc 1 197 0
 174 000e BD46     		mov	sp, r7
 175 0010 02B0     		add	sp, sp, #8
 176              		@ sp needed
 177 0012 80BD     		pop	{r7, pc}
 178              	.L11:
 179              		.align	2
 180              	.L10:
 181 0014 00000000 		.word	CyRamVectors
 182              		.cfi_endproc
 183              	.LFE4:
 184              		.size	t1_int_SetVector, .-t1_int_SetVector
 185              		.section	.text.t1_int_GetVector,"ax",%progbits
 186              		.align	2
 187              		.global	t1_int_GetVector
 188              		.code	16
 189              		.thumb_func
 190              		.type	t1_int_GetVector, %function
 191              	t1_int_GetVector:
 192              	.LFB5:
 198:.\Generated_Source\PSoC4/t1_int.c **** 
 199:.\Generated_Source\PSoC4/t1_int.c **** 
 200:.\Generated_Source\PSoC4/t1_int.c **** /*******************************************************************************
 201:.\Generated_Source\PSoC4/t1_int.c **** * Function Name: t1_int_GetVector
 202:.\Generated_Source\PSoC4/t1_int.c **** ********************************************************************************
 203:.\Generated_Source\PSoC4/t1_int.c **** *
 204:.\Generated_Source\PSoC4/t1_int.c **** * Summary:
 205:.\Generated_Source\PSoC4/t1_int.c **** *   Gets the "address" of the current ISR vector for the Interrupt.
 206:.\Generated_Source\PSoC4/t1_int.c **** *
 207:.\Generated_Source\PSoC4/t1_int.c **** * Parameters:
ARM GAS  C:\Users\Snufkin\AppData\Local\Temp\ccENfz0T.s 			page 8


 208:.\Generated_Source\PSoC4/t1_int.c **** *   None
 209:.\Generated_Source\PSoC4/t1_int.c **** *
 210:.\Generated_Source\PSoC4/t1_int.c **** * Return:
 211:.\Generated_Source\PSoC4/t1_int.c **** *   Address of the ISR in the interrupt vector table.
 212:.\Generated_Source\PSoC4/t1_int.c **** *
 213:.\Generated_Source\PSoC4/t1_int.c **** *******************************************************************************/
 214:.\Generated_Source\PSoC4/t1_int.c **** cyisraddress t1_int_GetVector(void)
 215:.\Generated_Source\PSoC4/t1_int.c **** {
 193              		.loc 1 215 0
 194              		.cfi_startproc
 195 0000 80B5     		push	{r7, lr}
 196              		.cfi_def_cfa_offset 8
 197              		.cfi_offset 7, -8
 198              		.cfi_offset 14, -4
 199 0002 00AF     		add	r7, sp, #0
 200              		.cfi_def_cfa_register 7
 216:.\Generated_Source\PSoC4/t1_int.c ****     return CyRamVectors[CYINT_IRQ_BASE + t1_int__INTC_NUMBER];
 201              		.loc 1 216 0
 202 0004 024B     		ldr	r3, .L14
 203 0006 DB6C     		ldr	r3, [r3, #76]
 217:.\Generated_Source\PSoC4/t1_int.c **** }
 204              		.loc 1 217 0
 205 0008 181C     		mov	r0, r3
 206 000a BD46     		mov	sp, r7
 207              		@ sp needed
 208 000c 80BD     		pop	{r7, pc}
 209              	.L15:
 210 000e C046     		.align	2
 211              	.L14:
 212 0010 00000000 		.word	CyRamVectors
 213              		.cfi_endproc
 214              	.LFE5:
 215              		.size	t1_int_GetVector, .-t1_int_GetVector
 216              		.section	.text.t1_int_SetPriority,"ax",%progbits
 217              		.align	2
 218              		.global	t1_int_SetPriority
 219              		.code	16
 220              		.thumb_func
 221              		.type	t1_int_SetPriority, %function
 222              	t1_int_SetPriority:
 223              	.LFB6:
 218:.\Generated_Source\PSoC4/t1_int.c **** 
 219:.\Generated_Source\PSoC4/t1_int.c **** 
 220:.\Generated_Source\PSoC4/t1_int.c **** /*******************************************************************************
 221:.\Generated_Source\PSoC4/t1_int.c **** * Function Name: t1_int_SetPriority
 222:.\Generated_Source\PSoC4/t1_int.c **** ********************************************************************************
 223:.\Generated_Source\PSoC4/t1_int.c **** *
 224:.\Generated_Source\PSoC4/t1_int.c **** * Summary:
 225:.\Generated_Source\PSoC4/t1_int.c **** *   Sets the Priority of the Interrupt. 
 226:.\Generated_Source\PSoC4/t1_int.c **** *
 227:.\Generated_Source\PSoC4/t1_int.c **** *   Note calling t1_int_Start or t1_int_StartEx will 
 228:.\Generated_Source\PSoC4/t1_int.c **** *   override any effect this API would have had. This API should only be called
 229:.\Generated_Source\PSoC4/t1_int.c **** *   after t1_int_Start or t1_int_StartEx has been called. 
 230:.\Generated_Source\PSoC4/t1_int.c **** *   To set the initial priority for the component, use the Design-Wide Resources
 231:.\Generated_Source\PSoC4/t1_int.c **** *   Interrupt Editor.
 232:.\Generated_Source\PSoC4/t1_int.c **** *
 233:.\Generated_Source\PSoC4/t1_int.c **** *   Note This API has no effect on Non-maskable interrupt NMI).
ARM GAS  C:\Users\Snufkin\AppData\Local\Temp\ccENfz0T.s 			page 9


 234:.\Generated_Source\PSoC4/t1_int.c **** *
 235:.\Generated_Source\PSoC4/t1_int.c **** * Parameters:
 236:.\Generated_Source\PSoC4/t1_int.c **** *   priority: Priority of the interrupt, 0 being the highest priority
 237:.\Generated_Source\PSoC4/t1_int.c **** *             PSoC 3 and PSoC 5LP: Priority is from 0 to 7.
 238:.\Generated_Source\PSoC4/t1_int.c **** *             PSoC 4: Priority is from 0 to 3.
 239:.\Generated_Source\PSoC4/t1_int.c **** *
 240:.\Generated_Source\PSoC4/t1_int.c **** * Return:
 241:.\Generated_Source\PSoC4/t1_int.c **** *   None
 242:.\Generated_Source\PSoC4/t1_int.c **** *
 243:.\Generated_Source\PSoC4/t1_int.c **** *******************************************************************************/
 244:.\Generated_Source\PSoC4/t1_int.c **** void t1_int_SetPriority(uint8 priority)
 245:.\Generated_Source\PSoC4/t1_int.c **** {
 224              		.loc 1 245 0
 225              		.cfi_startproc
 226 0000 90B5     		push	{r4, r7, lr}
 227              		.cfi_def_cfa_offset 12
 228              		.cfi_offset 4, -12
 229              		.cfi_offset 7, -8
 230              		.cfi_offset 14, -4
 231 0002 85B0     		sub	sp, sp, #20
 232              		.cfi_def_cfa_offset 32
 233 0004 00AF     		add	r7, sp, #0
 234              		.cfi_def_cfa_register 7
 235 0006 021C     		mov	r2, r0
 236 0008 FB1D     		add	r3, r7, #7
 237 000a 1A70     		strb	r2, [r3]
 246:.\Generated_Source\PSoC4/t1_int.c **** 	uint8 interruptState;
 247:.\Generated_Source\PSoC4/t1_int.c ****     uint32 priorityOffset = ((t1_int__INTC_NUMBER % 4u) * 8u) + 6u;
 238              		.loc 1 247 0
 239 000c 1E23     		mov	r3, #30
 240 000e FB60     		str	r3, [r7, #12]
 248:.\Generated_Source\PSoC4/t1_int.c ****     
 249:.\Generated_Source\PSoC4/t1_int.c **** 	interruptState = CyEnterCriticalSection();
 241              		.loc 1 249 0
 242 0010 3C1C     		mov	r4, r7
 243 0012 0B34     		add	r4, r4, #11
 244 0014 FFF7FEFF 		bl	CyEnterCriticalSection
 245 0018 031C     		mov	r3, r0
 246 001a 2370     		strb	r3, [r4]
 250:.\Generated_Source\PSoC4/t1_int.c ****     *t1_int_INTC_PRIOR = (*t1_int_INTC_PRIOR & (uint32)(~t1_int__INTC_PRIOR_MASK)) |
 247              		.loc 1 250 0
 248 001c 0A4B     		ldr	r3, .L17
 249 001e 0A4A     		ldr	r2, .L17
 250 0020 1268     		ldr	r2, [r2]
 251 0022 9200     		lsl	r2, r2, #2
 252 0024 9108     		lsr	r1, r2, #2
 251:.\Generated_Source\PSoC4/t1_int.c ****                                     ((uint32)priority << priorityOffset);
 253              		.loc 1 251 0
 254 0026 FA1D     		add	r2, r7, #7
 255 0028 1078     		ldrb	r0, [r2]
 256 002a FA68     		ldr	r2, [r7, #12]
 257 002c 041C     		mov	r4, r0
 258 002e 9440     		lsl	r4, r4, r2
 259 0030 221C     		mov	r2, r4
 250:.\Generated_Source\PSoC4/t1_int.c ****     *t1_int_INTC_PRIOR = (*t1_int_INTC_PRIOR & (uint32)(~t1_int__INTC_PRIOR_MASK)) |
 260              		.loc 1 250 0
 261 0032 0A43     		orr	r2, r1
ARM GAS  C:\Users\Snufkin\AppData\Local\Temp\ccENfz0T.s 			page 10


 262 0034 1A60     		str	r2, [r3]
 252:.\Generated_Source\PSoC4/t1_int.c **** 	CyExitCriticalSection(interruptState);
 263              		.loc 1 252 0
 264 0036 3B1C     		mov	r3, r7
 265 0038 0B33     		add	r3, r3, #11
 266 003a 1B78     		ldrb	r3, [r3]
 267 003c 181C     		mov	r0, r3
 268 003e FFF7FEFF 		bl	CyExitCriticalSection
 253:.\Generated_Source\PSoC4/t1_int.c **** }
 269              		.loc 1 253 0
 270 0042 BD46     		mov	sp, r7
 271 0044 05B0     		add	sp, sp, #20
 272              		@ sp needed
 273 0046 90BD     		pop	{r4, r7, pc}
 274              	.L18:
 275              		.align	2
 276              	.L17:
 277 0048 00E400E0 		.word	-536812544
 278              		.cfi_endproc
 279              	.LFE6:
 280              		.size	t1_int_SetPriority, .-t1_int_SetPriority
 281              		.section	.text.t1_int_GetPriority,"ax",%progbits
 282              		.align	2
 283              		.global	t1_int_GetPriority
 284              		.code	16
 285              		.thumb_func
 286              		.type	t1_int_GetPriority, %function
 287              	t1_int_GetPriority:
 288              	.LFB7:
 254:.\Generated_Source\PSoC4/t1_int.c **** 
 255:.\Generated_Source\PSoC4/t1_int.c **** 
 256:.\Generated_Source\PSoC4/t1_int.c **** /*******************************************************************************
 257:.\Generated_Source\PSoC4/t1_int.c **** * Function Name: t1_int_GetPriority
 258:.\Generated_Source\PSoC4/t1_int.c **** ********************************************************************************
 259:.\Generated_Source\PSoC4/t1_int.c **** *
 260:.\Generated_Source\PSoC4/t1_int.c **** * Summary:
 261:.\Generated_Source\PSoC4/t1_int.c **** *   Gets the Priority of the Interrupt.
 262:.\Generated_Source\PSoC4/t1_int.c **** *
 263:.\Generated_Source\PSoC4/t1_int.c **** * Parameters:
 264:.\Generated_Source\PSoC4/t1_int.c **** *   None
 265:.\Generated_Source\PSoC4/t1_int.c **** *
 266:.\Generated_Source\PSoC4/t1_int.c **** * Return:
 267:.\Generated_Source\PSoC4/t1_int.c **** *   Priority of the interrupt, 0 being the highest priority
 268:.\Generated_Source\PSoC4/t1_int.c **** *    PSoC 3 and PSoC 5LP: Priority is from 0 to 7.
 269:.\Generated_Source\PSoC4/t1_int.c **** *    PSoC 4: Priority is from 0 to 3.
 270:.\Generated_Source\PSoC4/t1_int.c **** *
 271:.\Generated_Source\PSoC4/t1_int.c **** *******************************************************************************/
 272:.\Generated_Source\PSoC4/t1_int.c **** uint8 t1_int_GetPriority(void)
 273:.\Generated_Source\PSoC4/t1_int.c **** {
 289              		.loc 1 273 0
 290              		.cfi_startproc
 291 0000 80B5     		push	{r7, lr}
 292              		.cfi_def_cfa_offset 8
 293              		.cfi_offset 7, -8
 294              		.cfi_offset 14, -4
 295 0002 82B0     		sub	sp, sp, #8
 296              		.cfi_def_cfa_offset 16
ARM GAS  C:\Users\Snufkin\AppData\Local\Temp\ccENfz0T.s 			page 11


 297 0004 00AF     		add	r7, sp, #0
 298              		.cfi_def_cfa_register 7
 274:.\Generated_Source\PSoC4/t1_int.c ****     uint32 priority;
 275:.\Generated_Source\PSoC4/t1_int.c **** 	uint32 priorityOffset = ((t1_int__INTC_NUMBER % 4u) * 8u) + 6u;
 299              		.loc 1 275 0
 300 0006 1E23     		mov	r3, #30
 301 0008 7B60     		str	r3, [r7, #4]
 276:.\Generated_Source\PSoC4/t1_int.c **** 
 277:.\Generated_Source\PSoC4/t1_int.c ****     priority = (*t1_int_INTC_PRIOR & t1_int__INTC_PRIOR_MASK) >> priorityOffset;
 302              		.loc 1 277 0
 303 000a 074B     		ldr	r3, .L21
 304 000c 1B68     		ldr	r3, [r3]
 305 000e 9B0F     		lsr	r3, r3, #30
 306 0010 9A07     		lsl	r2, r3, #30
 307 0012 7B68     		ldr	r3, [r7, #4]
 308 0014 111C     		mov	r1, r2
 309 0016 D940     		lsr	r1, r1, r3
 310 0018 0B1C     		mov	r3, r1
 311 001a 3B60     		str	r3, [r7]
 278:.\Generated_Source\PSoC4/t1_int.c **** 
 279:.\Generated_Source\PSoC4/t1_int.c ****     return (uint8)priority;
 312              		.loc 1 279 0
 313 001c 3B68     		ldr	r3, [r7]
 314 001e DBB2     		uxtb	r3, r3
 280:.\Generated_Source\PSoC4/t1_int.c **** }
 315              		.loc 1 280 0
 316 0020 181C     		mov	r0, r3
 317 0022 BD46     		mov	sp, r7
 318 0024 02B0     		add	sp, sp, #8
 319              		@ sp needed
 320 0026 80BD     		pop	{r7, pc}
 321              	.L22:
 322              		.align	2
 323              	.L21:
 324 0028 00E400E0 		.word	-536812544
 325              		.cfi_endproc
 326              	.LFE7:
 327              		.size	t1_int_GetPriority, .-t1_int_GetPriority
 328              		.section	.text.t1_int_Enable,"ax",%progbits
 329              		.align	2
 330              		.global	t1_int_Enable
 331              		.code	16
 332              		.thumb_func
 333              		.type	t1_int_Enable, %function
 334              	t1_int_Enable:
 335              	.LFB8:
 281:.\Generated_Source\PSoC4/t1_int.c **** 
 282:.\Generated_Source\PSoC4/t1_int.c **** 
 283:.\Generated_Source\PSoC4/t1_int.c **** /*******************************************************************************
 284:.\Generated_Source\PSoC4/t1_int.c **** * Function Name: t1_int_Enable
 285:.\Generated_Source\PSoC4/t1_int.c **** ********************************************************************************
 286:.\Generated_Source\PSoC4/t1_int.c **** *
 287:.\Generated_Source\PSoC4/t1_int.c **** * Summary:
 288:.\Generated_Source\PSoC4/t1_int.c **** *   Enables the interrupt to the interrupt controller. Do not call this function
 289:.\Generated_Source\PSoC4/t1_int.c **** *   unless ISR_Start() has been called or the functionality of the ISR_Start() 
 290:.\Generated_Source\PSoC4/t1_int.c **** *   function, which sets the vector and the priority, has been called.
 291:.\Generated_Source\PSoC4/t1_int.c **** *
ARM GAS  C:\Users\Snufkin\AppData\Local\Temp\ccENfz0T.s 			page 12


 292:.\Generated_Source\PSoC4/t1_int.c **** * Parameters:
 293:.\Generated_Source\PSoC4/t1_int.c **** *   None
 294:.\Generated_Source\PSoC4/t1_int.c **** *
 295:.\Generated_Source\PSoC4/t1_int.c **** * Return:
 296:.\Generated_Source\PSoC4/t1_int.c **** *   None
 297:.\Generated_Source\PSoC4/t1_int.c **** *
 298:.\Generated_Source\PSoC4/t1_int.c **** *******************************************************************************/
 299:.\Generated_Source\PSoC4/t1_int.c **** void t1_int_Enable(void)
 300:.\Generated_Source\PSoC4/t1_int.c **** {
 336              		.loc 1 300 0
 337              		.cfi_startproc
 338 0000 80B5     		push	{r7, lr}
 339              		.cfi_def_cfa_offset 8
 340              		.cfi_offset 7, -8
 341              		.cfi_offset 14, -4
 342 0002 00AF     		add	r7, sp, #0
 343              		.cfi_def_cfa_register 7
 301:.\Generated_Source\PSoC4/t1_int.c ****     /* Enable the general interrupt. */
 302:.\Generated_Source\PSoC4/t1_int.c ****     *t1_int_INTC_SET_EN = t1_int__INTC_MASK;
 344              		.loc 1 302 0
 345 0004 024B     		ldr	r3, .L24
 346 0006 0822     		mov	r2, #8
 347 0008 1A60     		str	r2, [r3]
 303:.\Generated_Source\PSoC4/t1_int.c **** }
 348              		.loc 1 303 0
 349 000a BD46     		mov	sp, r7
 350              		@ sp needed
 351 000c 80BD     		pop	{r7, pc}
 352              	.L25:
 353 000e C046     		.align	2
 354              	.L24:
 355 0010 00E100E0 		.word	-536813312
 356              		.cfi_endproc
 357              	.LFE8:
 358              		.size	t1_int_Enable, .-t1_int_Enable
 359              		.section	.text.t1_int_GetState,"ax",%progbits
 360              		.align	2
 361              		.global	t1_int_GetState
 362              		.code	16
 363              		.thumb_func
 364              		.type	t1_int_GetState, %function
 365              	t1_int_GetState:
 366              	.LFB9:
 304:.\Generated_Source\PSoC4/t1_int.c **** 
 305:.\Generated_Source\PSoC4/t1_int.c **** 
 306:.\Generated_Source\PSoC4/t1_int.c **** /*******************************************************************************
 307:.\Generated_Source\PSoC4/t1_int.c **** * Function Name: t1_int_GetState
 308:.\Generated_Source\PSoC4/t1_int.c **** ********************************************************************************
 309:.\Generated_Source\PSoC4/t1_int.c **** *
 310:.\Generated_Source\PSoC4/t1_int.c **** * Summary:
 311:.\Generated_Source\PSoC4/t1_int.c **** *   Gets the state (enabled, disabled) of the Interrupt.
 312:.\Generated_Source\PSoC4/t1_int.c **** *
 313:.\Generated_Source\PSoC4/t1_int.c **** * Parameters:
 314:.\Generated_Source\PSoC4/t1_int.c **** *   None
 315:.\Generated_Source\PSoC4/t1_int.c **** *
 316:.\Generated_Source\PSoC4/t1_int.c **** * Return:
 317:.\Generated_Source\PSoC4/t1_int.c **** *   1 if enabled, 0 if disabled.
ARM GAS  C:\Users\Snufkin\AppData\Local\Temp\ccENfz0T.s 			page 13


 318:.\Generated_Source\PSoC4/t1_int.c **** *
 319:.\Generated_Source\PSoC4/t1_int.c **** *******************************************************************************/
 320:.\Generated_Source\PSoC4/t1_int.c **** uint8 t1_int_GetState(void)
 321:.\Generated_Source\PSoC4/t1_int.c **** {
 367              		.loc 1 321 0
 368              		.cfi_startproc
 369 0000 80B5     		push	{r7, lr}
 370              		.cfi_def_cfa_offset 8
 371              		.cfi_offset 7, -8
 372              		.cfi_offset 14, -4
 373 0002 00AF     		add	r7, sp, #0
 374              		.cfi_def_cfa_register 7
 322:.\Generated_Source\PSoC4/t1_int.c ****     /* Get the state of the general interrupt. */
 323:.\Generated_Source\PSoC4/t1_int.c ****     return ((*t1_int_INTC_SET_EN & (uint32)t1_int__INTC_MASK) != 0u) ? 1u:0u;
 375              		.loc 1 323 0
 376 0004 054B     		ldr	r3, .L30
 377 0006 1A68     		ldr	r2, [r3]
 378 0008 0823     		mov	r3, #8
 379 000a 1340     		and	r3, r2
 380 000c 01D0     		beq	.L27
 381              		.loc 1 323 0 is_stmt 0 discriminator 1
 382 000e 0123     		mov	r3, #1
 383 0010 00E0     		b	.L28
 384              	.L27:
 385              		.loc 1 323 0 discriminator 2
 386 0012 0023     		mov	r3, #0
 387              	.L28:
 324:.\Generated_Source\PSoC4/t1_int.c **** }
 388              		.loc 1 324 0 is_stmt 1 discriminator 3
 389 0014 181C     		mov	r0, r3
 390 0016 BD46     		mov	sp, r7
 391              		@ sp needed
 392 0018 80BD     		pop	{r7, pc}
 393              	.L31:
 394 001a C046     		.align	2
 395              	.L30:
 396 001c 00E100E0 		.word	-536813312
 397              		.cfi_endproc
 398              	.LFE9:
 399              		.size	t1_int_GetState, .-t1_int_GetState
 400              		.section	.text.t1_int_Disable,"ax",%progbits
 401              		.align	2
 402              		.global	t1_int_Disable
 403              		.code	16
 404              		.thumb_func
 405              		.type	t1_int_Disable, %function
 406              	t1_int_Disable:
 407              	.LFB10:
 325:.\Generated_Source\PSoC4/t1_int.c **** 
 326:.\Generated_Source\PSoC4/t1_int.c **** 
 327:.\Generated_Source\PSoC4/t1_int.c **** /*******************************************************************************
 328:.\Generated_Source\PSoC4/t1_int.c **** * Function Name: t1_int_Disable
 329:.\Generated_Source\PSoC4/t1_int.c **** ********************************************************************************
 330:.\Generated_Source\PSoC4/t1_int.c **** *
 331:.\Generated_Source\PSoC4/t1_int.c **** * Summary:
 332:.\Generated_Source\PSoC4/t1_int.c **** *   Disables the Interrupt in the interrupt controller.
 333:.\Generated_Source\PSoC4/t1_int.c **** *
ARM GAS  C:\Users\Snufkin\AppData\Local\Temp\ccENfz0T.s 			page 14


 334:.\Generated_Source\PSoC4/t1_int.c **** * Parameters:
 335:.\Generated_Source\PSoC4/t1_int.c **** *   None
 336:.\Generated_Source\PSoC4/t1_int.c **** *
 337:.\Generated_Source\PSoC4/t1_int.c **** * Return:
 338:.\Generated_Source\PSoC4/t1_int.c **** *   None
 339:.\Generated_Source\PSoC4/t1_int.c **** *
 340:.\Generated_Source\PSoC4/t1_int.c **** *******************************************************************************/
 341:.\Generated_Source\PSoC4/t1_int.c **** void t1_int_Disable(void)
 342:.\Generated_Source\PSoC4/t1_int.c **** {
 408              		.loc 1 342 0
 409              		.cfi_startproc
 410 0000 80B5     		push	{r7, lr}
 411              		.cfi_def_cfa_offset 8
 412              		.cfi_offset 7, -8
 413              		.cfi_offset 14, -4
 414 0002 00AF     		add	r7, sp, #0
 415              		.cfi_def_cfa_register 7
 343:.\Generated_Source\PSoC4/t1_int.c ****     /* Disable the general interrupt. */
 344:.\Generated_Source\PSoC4/t1_int.c ****     *t1_int_INTC_CLR_EN = t1_int__INTC_MASK;
 416              		.loc 1 344 0
 417 0004 024B     		ldr	r3, .L33
 418 0006 0822     		mov	r2, #8
 419 0008 1A60     		str	r2, [r3]
 345:.\Generated_Source\PSoC4/t1_int.c **** }
 420              		.loc 1 345 0
 421 000a BD46     		mov	sp, r7
 422              		@ sp needed
 423 000c 80BD     		pop	{r7, pc}
 424              	.L34:
 425 000e C046     		.align	2
 426              	.L33:
 427 0010 80E100E0 		.word	-536813184
 428              		.cfi_endproc
 429              	.LFE10:
 430              		.size	t1_int_Disable, .-t1_int_Disable
 431              		.section	.text.t1_int_SetPending,"ax",%progbits
 432              		.align	2
 433              		.global	t1_int_SetPending
 434              		.code	16
 435              		.thumb_func
 436              		.type	t1_int_SetPending, %function
 437              	t1_int_SetPending:
 438              	.LFB11:
 346:.\Generated_Source\PSoC4/t1_int.c **** 
 347:.\Generated_Source\PSoC4/t1_int.c **** 
 348:.\Generated_Source\PSoC4/t1_int.c **** /*******************************************************************************
 349:.\Generated_Source\PSoC4/t1_int.c **** * Function Name: t1_int_SetPending
 350:.\Generated_Source\PSoC4/t1_int.c **** ********************************************************************************
 351:.\Generated_Source\PSoC4/t1_int.c **** *
 352:.\Generated_Source\PSoC4/t1_int.c **** * Summary:
 353:.\Generated_Source\PSoC4/t1_int.c **** *   Causes the Interrupt to enter the pending state, a software method of
 354:.\Generated_Source\PSoC4/t1_int.c **** *   generating the interrupt.
 355:.\Generated_Source\PSoC4/t1_int.c **** *
 356:.\Generated_Source\PSoC4/t1_int.c **** * Parameters:
 357:.\Generated_Source\PSoC4/t1_int.c **** *   None
 358:.\Generated_Source\PSoC4/t1_int.c **** *
 359:.\Generated_Source\PSoC4/t1_int.c **** * Return:
ARM GAS  C:\Users\Snufkin\AppData\Local\Temp\ccENfz0T.s 			page 15


 360:.\Generated_Source\PSoC4/t1_int.c **** *   None
 361:.\Generated_Source\PSoC4/t1_int.c **** *
 362:.\Generated_Source\PSoC4/t1_int.c **** * Side Effects:
 363:.\Generated_Source\PSoC4/t1_int.c **** *   If interrupts are enabled and the interrupt is set up properly, the ISR is
 364:.\Generated_Source\PSoC4/t1_int.c **** *   entered (depending on the priority of this interrupt and other pending 
 365:.\Generated_Source\PSoC4/t1_int.c **** *   interrupts).
 366:.\Generated_Source\PSoC4/t1_int.c **** *
 367:.\Generated_Source\PSoC4/t1_int.c **** *******************************************************************************/
 368:.\Generated_Source\PSoC4/t1_int.c **** void t1_int_SetPending(void)
 369:.\Generated_Source\PSoC4/t1_int.c **** {
 439              		.loc 1 369 0
 440              		.cfi_startproc
 441 0000 80B5     		push	{r7, lr}
 442              		.cfi_def_cfa_offset 8
 443              		.cfi_offset 7, -8
 444              		.cfi_offset 14, -4
 445 0002 00AF     		add	r7, sp, #0
 446              		.cfi_def_cfa_register 7
 370:.\Generated_Source\PSoC4/t1_int.c ****     *t1_int_INTC_SET_PD = t1_int__INTC_MASK;
 447              		.loc 1 370 0
 448 0004 024B     		ldr	r3, .L36
 449 0006 0822     		mov	r2, #8
 450 0008 1A60     		str	r2, [r3]
 371:.\Generated_Source\PSoC4/t1_int.c **** }
 451              		.loc 1 371 0
 452 000a BD46     		mov	sp, r7
 453              		@ sp needed
 454 000c 80BD     		pop	{r7, pc}
 455              	.L37:
 456 000e C046     		.align	2
 457              	.L36:
 458 0010 00E200E0 		.word	-536813056
 459              		.cfi_endproc
 460              	.LFE11:
 461              		.size	t1_int_SetPending, .-t1_int_SetPending
 462              		.section	.text.t1_int_ClearPending,"ax",%progbits
 463              		.align	2
 464              		.global	t1_int_ClearPending
 465              		.code	16
 466              		.thumb_func
 467              		.type	t1_int_ClearPending, %function
 468              	t1_int_ClearPending:
 469              	.LFB12:
 372:.\Generated_Source\PSoC4/t1_int.c **** 
 373:.\Generated_Source\PSoC4/t1_int.c **** 
 374:.\Generated_Source\PSoC4/t1_int.c **** /*******************************************************************************
 375:.\Generated_Source\PSoC4/t1_int.c **** * Function Name: t1_int_ClearPending
 376:.\Generated_Source\PSoC4/t1_int.c **** ********************************************************************************
 377:.\Generated_Source\PSoC4/t1_int.c **** *
 378:.\Generated_Source\PSoC4/t1_int.c **** * Summary:
 379:.\Generated_Source\PSoC4/t1_int.c **** *   Clears a pending interrupt in the interrupt controller.
 380:.\Generated_Source\PSoC4/t1_int.c **** *
 381:.\Generated_Source\PSoC4/t1_int.c **** *   Note Some interrupt sources are clear-on-read and require the block 
 382:.\Generated_Source\PSoC4/t1_int.c **** *   interrupt/status register to be read/cleared with the appropriate block API 
 383:.\Generated_Source\PSoC4/t1_int.c **** *   (GPIO, UART, and so on). Otherwise the ISR will continue to remain in 
 384:.\Generated_Source\PSoC4/t1_int.c **** *   pending state even though the interrupt itself is cleared using this API.
 385:.\Generated_Source\PSoC4/t1_int.c **** *
ARM GAS  C:\Users\Snufkin\AppData\Local\Temp\ccENfz0T.s 			page 16


 386:.\Generated_Source\PSoC4/t1_int.c **** * Parameters:
 387:.\Generated_Source\PSoC4/t1_int.c **** *   None
 388:.\Generated_Source\PSoC4/t1_int.c **** *
 389:.\Generated_Source\PSoC4/t1_int.c **** * Return:
 390:.\Generated_Source\PSoC4/t1_int.c **** *   None
 391:.\Generated_Source\PSoC4/t1_int.c **** *
 392:.\Generated_Source\PSoC4/t1_int.c **** *******************************************************************************/
 393:.\Generated_Source\PSoC4/t1_int.c **** void t1_int_ClearPending(void)
 394:.\Generated_Source\PSoC4/t1_int.c **** {
 470              		.loc 1 394 0
 471              		.cfi_startproc
 472 0000 80B5     		push	{r7, lr}
 473              		.cfi_def_cfa_offset 8
 474              		.cfi_offset 7, -8
 475              		.cfi_offset 14, -4
 476 0002 00AF     		add	r7, sp, #0
 477              		.cfi_def_cfa_register 7
 395:.\Generated_Source\PSoC4/t1_int.c ****     *t1_int_INTC_CLR_PD = t1_int__INTC_MASK;
 478              		.loc 1 395 0
 479 0004 024B     		ldr	r3, .L39
 480 0006 0822     		mov	r2, #8
 481 0008 1A60     		str	r2, [r3]
 396:.\Generated_Source\PSoC4/t1_int.c **** }
 482              		.loc 1 396 0
 483 000a BD46     		mov	sp, r7
 484              		@ sp needed
 485 000c 80BD     		pop	{r7, pc}
 486              	.L40:
 487 000e C046     		.align	2
 488              	.L39:
 489 0010 80E200E0 		.word	-536812928
 490              		.cfi_endproc
 491              	.LFE12:
 492              		.size	t1_int_ClearPending, .-t1_int_ClearPending
 493              		.text
 494              	.Letext0:
 495              		.file 2 ".\\Generated_Source\\PSoC4/cytypes.h"